ccopy_reg
_reconstructor
p1
(cmatplotlib.font_manager
FontManager
p2
c__builtin__
object
p3
NtRp4
(dp5
S'ttflist'
p6
(lp7
g1
(cmatplotlib.font_manager
FontEntry
p8
g3
NtRp9
(dp10
S'style'
p11
Vnormal
p12
sS'name'
p13
S'cmmi10'
p14
sS'weight'
p15
I400
sS'stretch'
p16
g12
sS'variant'
p17
g12
sS'fname'
p18
V/home/renato/intel/intelpython27/lib/python2.7/site-packages/matplotlib/mpl-data/fonts/ttf/cmmi10.ttf
p19
sS'size'
p20
Vscalable
p21
sbag1
(g8
g3
NtRp22
(dp23
g11
g12
sg13
S'Bitstream Vera Sans Mono'
p24
sg15
I400
sg16
g12
sg17
g12
sg18
V/home/renato/intel/intelpython27/lib/python2.7/site-packages/matplotlib/mpl-data/fonts/ttf/VeraMono.ttf
p25
sg20
g21
sbag1
(g8
g3
NtRp26
(dp27
g11
Voblique
p28
sg13
S'Bitstream Vera Sans'
p29
sg15
I400
sg16
g12
sg17
g12
sg18
V/home/renato/intel/intelpython27/lib/python2.7/site-packages/matplotlib/mpl-data/fonts/ttf/VeraIt.ttf
p30
sg20
g21
sbag1
(g8
g3
NtRp31
(dp32
g11
g12
sg13
S'cmss10'
p33
sg15
I400
sg16
g12
sg17
g12
sg18
V/home/renato/intel/intelpython27/lib/python2.7/site-packages/matplotlib/mpl-data/fonts/ttf/cmss10.ttf
p34
sg20
g21
sbag1
(g8
g3
NtRp35
(dp36
g11
g12
sg13
S'STIXNonUnicode'
p37
sg15
I700
sg16
g12
sg17
g12
sg18
V/home/renato/intel/intelpython27/lib/python2.7/site-packages/matplotlib/mpl-data/fonts/ttf/STIXNonUniBol.ttf
p38
sg20
g21
sbag1
(g8
g3
NtRp39
(dp40
g11
Vitalic
p41
sg13
S'STIXNonUnicode'
p42
sg15
I400
sg16
g12
sg17
g12
sg18
V/home/renato/intel/intelpython27/lib/python2.7/site-packages/matplotlib/mpl-data/fonts/ttf/STIXNonUniIta.ttf
p43
sg20
g21
sbag1
(g8
g3
NtRp44
(dp45
g11
g12
sg13
S'STIXSizeOneSym'
p46
sg15
I400
sg16
g12
sg17
g12
sg18
V/home/renato/intel/intelpython27/lib/python2.7/site-packages/matplotlib/mpl-data/fonts/ttf/STIXSizOneSymReg.ttf
p47
sg20
g21
sbag1
(g8
g3
NtRp48
(dp49
g11
g12
sg13
S'cmex10'
p50
sg15
I400
sg16
g12
sg17
g12
sg18
V/home/renato/intel/intelpython27/lib/python2.7/site-packages/matplotlib/mpl-data/fonts/ttf/cmex10.ttf
p51
sg20
g21
sbag1
(g8
g3
NtRp52
(dp53
g11
g12
sg13
S'Bitstream Vera Sans'
p54
sg15
I400
sg16
g12
sg17
g12
sg18
V/home/renato/intel/intelpython27/lib/python2.7/site-packages/matplotlib/mpl-data/fonts/ttf/Vera.ttf
p55
sg20
g21
sbag1
(g8
g3
NtRp56
(dp57
g11
g12
sg13
S'STIXSizeTwoSym'
p58
sg15
I400
sg16
g12
sg17
g12
sg18
V/home/renato/intel/intelpython27/lib/python2.7/site-packages/matplotlib/mpl-data/fonts/ttf/STIXSizTwoSymReg.ttf
p59
sg20
g21
sbag1
(g8
g3
NtRp60
(dp61
g11
g12
sg13
S'STIXSizeOneSym'
p62
sg15
I700
sg16
g12
sg17
g12
sg18
V/home/renato/intel/intelpython27/lib/python2.7/site-packages/matplotlib/mpl-data/fonts/ttf/STIXSizOneSymBol.ttf
p63
sg20
g21
sbag1
(g8
g3
NtRp64
(dp65
g11
g12
sg13
S'Bitstream Vera Sans Mono'
p66
sg15
I700
sg16
g12
sg17
g12
sg18
V/home/renato/intel/intelpython27/lib/python2.7/site-packages/matplotlib/mpl-data/fonts/ttf/VeraMoBd.ttf
p67
sg20
g21
sbag1
(g8
g3
NtRp68
(dp69
g11
g41
sg13
S'STIXGeneral'
p70
sg15
I700
sg16
g12
sg17
g12
sg18
V/home/renato/intel/intelpython27/lib/python2.7/site-packages/matplotlib/mpl-data/fonts/ttf/STIXGeneralBolIta.ttf
p71
sg20
g21
sbag1
(g8
g3
NtRp72
(dp73
g11
g12
sg13
S'cmb10'
p74
sg15
I400
sg16
g12
sg17
g12
sg18
V/home/renato/intel/intelpython27/lib/python2.7/site-packages/matplotlib/mpl-data/fonts/ttf/cmb10.ttf
p75
sg20
g21
sbag1
(g8
g3
NtRp76
(dp77
g11
g12
sg13
S'STIXNonUnicode'
p78
sg15
I400
sg16
g12
sg17
g12
sg18
V/home/renato/intel/intelpython27/lib/python2.7/site-packages/matplotlib/mpl-data/fonts/ttf/STIXNonUni.ttf
p79
sg20
g21
sbag1
(g8
g3
NtRp80
(dp81
g11
g12
sg13
S'Bitstream Vera Serif'
p82
sg15
I700
sg16
g12
sg17
g12
sg18
V/home/renato/intel/intelpython27/lib/python2.7/site-packages/matplotlib/mpl-data/fonts/ttf/VeraSeBd.ttf
p83
sg20
g21
sbag1
(g8
g3
NtRp84
(dp85
g11
g12
sg13
S'STIXSizeFourSym'
p86
sg15
I700
sg16
g12
sg17
g12
sg18
V/home/renato/intel/intelpython27/lib/python2.7/site-packages/matplotlib/mpl-data/fonts/ttf/STIXSizFourSymBol.ttf
p87
sg20
g21
sbag1
(g8
g3
NtRp88
(dp89
g11
g12
sg13
S'STIXGeneral'
p90
sg15
I700
sg16
g12
sg17
g12
sg18
V/home/renato/intel/intelpython27/lib/python2.7/site-packages/matplotlib/mpl-data/fonts/ttf/STIXGeneralBol.ttf
p91
sg20
g21
sbag1
(g8
g3
NtRp92
(dp93
g11
g28
sg13
S'Bitstream Vera Sans Mono'
p94
sg15
I400
sg16
g12
sg17
g12
sg18
V/home/renato/intel/intelpython27/lib/python2.7/site-packages/matplotlib/mpl-data/fonts/ttf/VeraMoIt.ttf
p95
sg20
g21
sbag1
(g8
g3
NtRp96
(dp97
g11
g12
sg13
S'STIXGeneral'
p98
sg15
I400
sg16
g12
sg17
g12
sg18
V/home/renato/intel/intelpython27/lib/python2.7/site-packages/matplotlib/mpl-data/fonts/ttf/STIXGeneral.ttf
p99
sg20
g21
sbag1
(g8
g3
NtRp100
(dp101
g11
g41
sg13
S'STIXGeneral'
p102
sg15
I400
sg16
g12
sg17
g12
sg18
V/home/renato/intel/intelpython27/lib/python2.7/site-packages/matplotlib/mpl-data/fonts/ttf/STIXGeneralItalic.ttf
p103
sg20
g21
sbag1
(g8
g3
NtRp104
(dp105
g11
g12
sg13
S'Bitstream Vera Serif'
p106
sg15
I400
sg16
g12
sg17
g12
sg18
V/home/renato/intel/intelpython27/lib/python2.7/site-packages/matplotlib/mpl-data/fonts/ttf/VeraSe.ttf
p107
sg20
g21
sbag1
(g8
g3
NtRp108
(dp109
g11
g12
sg13
S'STIXSizeTwoSym'
p110
sg15
I700
sg16
g12
sg17
g12
sg18
V/home/renato/intel/intelpython27/lib/python2.7/site-packages/matplotlib/mpl-data/fonts/ttf/STIXSizTwoSymBol.ttf
p111
sg20
g21
sbag1
(g8
g3
NtRp112
(dp113
g11
g12
sg13
S'STIXSizeThreeSym'
p114
sg15
I400
sg16
g12
sg17
g12
sg18
V/home/renato/intel/intelpython27/lib/python2.7/site-packages/matplotlib/mpl-data/fonts/ttf/STIXSizThreeSymReg.ttf
p115
sg20
g21
sbag1
(g8
g3
NtRp116
(dp117
g11
g12
sg13
S'STIXSizeThreeSym'
p118
sg15
I700
sg16
g12
sg17
g12
sg18
V/home/renato/intel/intelpython27/lib/python2.7/site-packages/matplotlib/mpl-data/fonts/ttf/STIXSizThreeSymBol.ttf
p119
sg20
g21
sbag1
(g8
g3
NtRp120
(dp121
g11
g12
sg13
S'cmtt10'
p122
sg15
I400
sg16
g12
sg17
g12
sg18
V/home/renato/intel/intelpython27/lib/python2.7/site-packages/matplotlib/mpl-data/fonts/ttf/cmtt10.ttf
p123
sg20
g21
sbag1
(g8
g3
NtRp124
(dp125
g11
g28
sg13
S'Bitstream Vera Sans Mono'
p126
sg15
I700
sg16
g12
sg17
g12
sg18
V/home/renato/intel/intelpython27/lib/python2.7/site-packages/matplotlib/mpl-data/fonts/ttf/VeraMoBI.ttf
p127
sg20
g21
sbag1
(g8
g3
NtRp128
(dp129
g11
g12
sg13
S'cmsy10'
p130
sg15
I400
sg16
g12
sg17
g12
sg18
V/home/renato/intel/intelpython27/lib/python2.7/site-packages/matplotlib/mpl-data/fonts/ttf/cmsy10.ttf
p131
sg20
g21
sbag1
(g8
g3
NtRp132
(dp133
g11
g12
sg13
S'cmr10'
p134
sg15
I400
sg16
g12
sg17
g12
sg18
V/home/renato/intel/intelpython27/lib/python2.7/site-packages/matplotlib/mpl-data/fonts/ttf/cmr10.ttf
p135
sg20
g21
sbag1
(g8
g3
NtRp136
(dp137
g11
g41
sg13
S'STIXNonUnicode'
p138
sg15
I700
sg16
g12
sg17
g12
sg18
V/home/renato/intel/intelpython27/lib/python2.7/site-packages/matplotlib/mpl-data/fonts/ttf/STIXNonUniBolIta.ttf
p139
sg20
g21
sbag1
(g8
g3
NtRp140
(dp141
g11
g12
sg13
S'STIXSizeFourSym'
p142
sg15
I400
sg16
g12
sg17
g12
sg18
V/home/renato/intel/intelpython27/lib/python2.7/site-packages/matplotlib/mpl-data/fonts/ttf/STIXSizFourSymReg.ttf
p143
sg20
g21
sbag1
(g8
g3
NtRp144
(dp145
g11
g12
sg13
S'STIXSizeFiveSym'
p146
sg15
I400
sg16
g12
sg17
g12
sg18
V/home/renato/intel/intelpython27/lib/python2.7/site-packages/matplotlib/mpl-data/fonts/ttf/STIXSizFiveSymReg.ttf
p147
sg20
g21
sbag1
(g8
g3
NtRp148
(dp149
g11
g28
sg13
S'Bitstream Vera Sans'
p150
sg15
I700
sg16
g12
sg17
g12
sg18
V/home/renato/intel/intelpython27/lib/python2.7/site-packages/matplotlib/mpl-data/fonts/ttf/VeraBI.ttf
p151
sg20
g21
sbag1
(g8
g3
NtRp152
(dp153
g11
g12
sg13
S'Bitstream Vera Sans'
p154
sg15
I700
sg16
g12
sg17
g12
sg18
V/home/renato/intel/intelpython27/lib/python2.7/site-packages/matplotlib/mpl-data/fonts/ttf/VeraBd.ttf
p155
sg20
g21
sbag1
(g8
g3
NtRp156
(dp157
g11
g12
sg13
S'STIXIntegralsUp'
p158
sg15
I400
sg16
g12
sg17
g12
sg18
V/usr/share/fonts/opentype/stix/STIXIntegralsUp-Regular.otf
p159
sg20
g21
sbag1
(g8
g3
NtRp160
(dp161
g11
g12
sg13
S'Droid Sans Ethiopic'
p162
sg15
I700
sg16
g12
sg17
g12
sg18
V/usr/share/fonts/truetype/droid/DroidSansEthiopic-Bold.ttf
p163
sg20
g21
sbag1
(g8
g3
NtRp164
(dp165
g11
g41
sg13
S'Latin Modern Roman'
p166
sg15
I500
sg16
g12
sg17
g12
sg18
V/usr/share/texmf/fonts/opentype/public/lm/lmroman8-italic.otf
p167
sg20
g21
sbag1
(g8
g3
NtRp168
(dp169
g11
g12
sg13
S'Latin Modern Mono Caps'
p170
sg15
I400
sg16
g12
sg17
g12
sg18
V/usr/share/texmf/fonts/opentype/public/lm/lmmonocaps10-regular.otf
p171
sg20
g21
sbag1
(g8
g3
NtRp172
(dp173
g11
g12
sg13
S'Ume Mincho S3'
p174
sg15
I400
sg16
g12
sg17
g12
sg18
V/usr/share/fonts/truetype/horai-umefont/ume-tms3.ttf
p175
sg20
g21
sbag1
(g8
g3
NtRp176
(dp177
g11
g12
sg13
S'Gentium'
p178
sg15
I400
sg16
g12
sg17
g12
sg18
V/usr/share/fonts/truetype/gentium/GenR102.ttf
p179
sg20
g21
sbag1
(g8
g3
NtRp180
(dp181
g11
g12
sg13
S'Inconsolata'
p182
sg15
I400
sg16
g12
sg17
g12
sg18
V/usr/share/fonts/truetype/inconsolata/Inconsolata.otf
p183
sg20
g21
sbag1
(g8
g3
NtRp184
(dp185
g11
g12
sg13
S'Gillius ADF Cd'
p186
sg15
I400
sg16
g12
sg17
g12
sg18
V/usr/share/fonts/truetype/adf/GilliusADFCd-Regular.otf
p187
sg20
g21
sbag1
(g8
g3
NtRp188
(dp189
g11
g12
sg13
S'KacstScreen'
p190
sg15
I400
sg16
g12
sg17
g12
sg18
V/usr/share/fonts/truetype/kacst/KacstScreen.ttf
p191
sg20
g21
sbag1
(g8
g3
NtRp192
(dp193
g11
g12
sg13
S'MathJax_Math'
p194
sg15
I400
sg16
g12
sg17
g12
sg18
V/usr/share/fonts/opentype/mathjax/MathJax_Math-Regular.otf
p195
sg20
g21
sbag1
(g8
g3
NtRp196
(dp197
g11
g28
sg13
S'Loma'
p198
sg15
I400
sg16
g12
sg17
g12
sg18
V/usr/share/fonts/truetype/tlwg/Loma-Oblique.ttf
p199
sg20
g21
sbag1
(g8
g3
NtRp200
(dp201
g11
g28
sg13
S'Norasi'
p202
sg15
I400
sg16
g12
sg17
g12
sg18
V/usr/share/fonts/truetype/tlwg/Norasi-Oblique.ttf
p203
sg20
g21
sbag1
(g8
g3
NtRp204
(dp205
g11
g41
sg13
S'Gentium Basic'
p206
sg15
I400
sg16
g12
sg17
g12
sg18
V/usr/share/fonts/truetype/gentium-basic/GenBasI.ttf
p207
sg20
g21
sbag1
(g8
g3
NtRp208
(dp209
g11
g41
sg13
S'Latin Modern Roman'
p210
sg15
I500
sg16
g12
sg17
g12
sg18
V/usr/share/texmf/fonts/opentype/public/lm/lmroman10-italic.otf
p211
sg20
g21
sbag1
(g8
g3
NtRp212
(dp213
g11
g12
sg13
S'Junicode'
p214
sg15
I400
sg16
g12
sg17
g12
sg18
V/usr/share/fonts/truetype/junicode/Junicode.ttf
p215
sg20
g21
sbag1
(g8
g3
NtRp216
(dp217
g11
g41
sg13
S'Gentium Book Basic'
p218
sg15
I700
sg16
g12
sg17
g12
sg18
V/usr/share/fonts/truetype/gentium-basic/GenBkBasBI.ttf
p219
sg20
g21
sbag1
(g8
g3
NtRp220
(dp221
g11
g12
sg13
S'TakaoPGothic'
p222
sg15
I400
sg16
g12
sg17
g12
sg18
V/usr/share/fonts/truetype/fonts-japanese-gothic.ttf
p223
sg20
g21
sbag1
(g8
g3
NtRp224
(dp225
g11
g12
sg13
S'Gentium Book Basic'
p226
sg15
I400
sg16
g12
sg17
g12
sg18
V/usr/share/fonts/truetype/gentium-basic/GenBkBasR.ttf
p227
sg20
g21
sbag1
(g8
g3
NtRp228
(dp229
g11
g12
sg13
S'DejaVu Serif'
p230
sg15
I400
sg16
g12
sg17
g12
sg18
V/usr/share/fonts/truetype/dejavu/DejaVuSerif.ttf
p231
sg20
g21
sbag1
(g8
g3
NtRp232
(dp233
g11
g12
sg13
S'Linux Libertine O'
p234
sg15
I700
sg16
g12
sg17
g12
sg18
V/usr/share/fonts/opentype/linux-libertine/LinLibertine_RZ.otf
p235
sg20
g21
sbag1
(g8
g3
NtRp236
(dp237
g11
g28
sg13
S'FreeMono'
p238
sg15
I700
sg16
g12
sg17
g12
sg18
V/usr/share/fonts/truetype/freefont/FreeMonoBoldOblique.ttf
p239
sg20
g21
sbag1
(g8
g3
NtRp240
(dp241
g11
g41
sg13
S'MathJax_Main'
p242
sg15
I400
sg16
g12
sg17
g12
sg18
V/usr/share/fonts/opentype/mathjax/MathJax_Main-Italic.otf
p243
sg20
g21
sbag1
(g8
g3
NtRp244
(dp245
g11
g12
sg13
S'Accanthis ADF Std No2'
p246
sg15
I700
sg16
g12
sg17
g12
sg18
V/usr/share/fonts/truetype/adf/AccanthisADFStdNo2-Bold.otf
p247
sg20
g21
sbag1
(g8
g3
NtRp248
(dp249
g11
g41
sg13
S'GFS Didot'
p250
sg15
I700
sg16
g12
sg17
g12
sg18
V/usr/share/fonts/truetype/didot/GFSDidotBoldItalic.otf
p251
sg20
g21
sbag1
(g8
g3
NtRp252
(dp253
g11
g41
sg13
S'TeX Gyre Termes'
p254
sg15
I700
sg16
g12
sg17
g12
sg18
V/usr/share/texmf/fonts/opentype/public/tex-gyre/texgyretermes-bolditalic.otf
p255
sg20
g21
sbag1
(g8
g3
NtRp256
(dp257
g11
g12
sg13
S'Latin Modern Roman'
p258
sg15
I700
sg16
g12
sg17
g12
sg18
V/usr/share/texmf/fonts/opentype/public/lm/lmroman8-bold.otf
p259
sg20
g21
sbag1
(g8
g3
NtRp260
(dp261
g11
g12
sg13
S'Latin Modern Mono'
p262
sg15
I400
sg16
g12
sg17
g12
sg18
V/usr/share/texmf/fonts/opentype/public/lm/lmmono10-regular.otf
p263
sg20
g21
sbag1
(g8
g3
NtRp264
(dp265
g11
g12
sg13
S'GFS Olga'
p266
sg15
I400
sg16
g12
sg17
g12
sg18
V/usr/share/fonts/truetype/olga/GFSOlga.otf
p267
sg20
g21
sbag1
(g8
g3
NtRp268
(dp269
g11
g41
sg13
S'Georgia'
p270
sg15
I700
sg16
g12
sg17
g12
sg18
V/usr/share/fonts/truetype/msttcorefonts/Georgia_Bold_Italic.ttf
p271
sg20
g21
sbag1
(g8
g3
NtRp272
(dp273
g11
g12
sg13
S'DejaVu Serif'
p274
sg15
I700
sg16
Vcondensed
p275
sg17
g12
sg18
V/usr/share/fonts/truetype/dejavu/DejaVuSerifCondensed-Bold.ttf
p276
sg20
g21
sbag1
(g8
g3
NtRp277
(dp278
g11
g12
sg13
S'Gillius ADF No2 Cd'
p279
sg15
I700
sg16
g12
sg17
g12
sg18
V/usr/share/fonts/truetype/adf/GilliusADFNo2Cd-Bold.otf
p280
sg20
g21
sbag1
(g8
g3
NtRp281
(dp282
g11
g12
sg13
S'Latin Modern Roman'
p283
sg15
I400
sg16
g12
sg17
g12
sg18
V/usr/share/texmf/fonts/opentype/public/lm/lmroman12-regular.otf
p284
sg20
g21
sbag1
(g8
g3
NtRp285
(dp286
g11
g12
sg13
S'Tlwg Typist'
p287
sg15
I400
sg16
g12
sg17
g12
sg18
V/usr/share/fonts/truetype/tlwg/TlwgTypist.ttf
p288
sg20
g21
sbag1
(g8
g3
NtRp289
(dp290
g11
g12
sg13
S'NanumGothic'
p291
sg15
I400
sg16
g12
sg17
g12
sg18
V/usr/share/fonts/truetype/nanum/NanumGothic.ttf
p292
sg20
g21
sbag1
(g8
g3
NtRp293
(dp294
g11
g12
sg13
S'Impact'
p295
sg15
I400
sg16
g12
sg17
g12
sg18
V/usr/share/fonts/truetype/msttcorefonts/Impact.ttf
p296
sg20
g21
sbag1
(g8
g3
NtRp297
(dp298
g11
g41
sg13
S'Amiri'
p299
sg15
I400
sg16
g12
sg17
g12
sg18
V/usr/share/fonts/opentype/fonts-hosny-amiri/amiri-slanted.ttf
p300
sg20
g21
sbag1
(g8
g3
NtRp301
(dp302
g11
g12
sg13
S'Lato'
p303
sg15
I700
sg16
g12
sg17
g12
sg18
V/usr/share/fonts/truetype/lato/Lato-Bol.ttf
p304
sg20
g21
sbag1
(g8
g3
NtRp305
(dp306
g11
g12
sg13
S'GFS Artemisia'
p307
sg15
I700
sg16
g12
sg17
g12
sg18
V/usr/share/fonts/truetype/artemisia/GFSArtemisiaBold.otf
p308
sg20
g21
sbag1
(g8
g3
NtRp309
(dp310
g11
g12
sg13
S'Gentium Basic'
p311
sg15
I400
sg16
g12
sg17
g12
sg18
V/usr/share/fonts/truetype/gentium-basic/GenBasR.ttf
p312
sg20
g21
sbag1
(g8
g3
NtRp313
(dp314
g11
g12
sg13
S'Droid Arabic Naskh'
p315
sg15
I400
sg16
g12
sg17
g12
sg18
V/usr/share/fonts/truetype/droid/DroidNaskh-Regular.ttf
p316
sg20
g21
sbag1
(g8
g3
NtRp317
(dp318
g11
g41
sg13
S'Gentium'
p319
sg15
I400
sg16
g12
sg17
g12
sg18
V/usr/share/fonts/truetype/gentium/GenI102.ttf
p320
sg20
g21
sbag1
(g8
g3
NtRp321
(dp322
g11
g12
sg13
S'Comfortaa'
p323
sg15
I200
sg16
g12
sg17
g12
sg18
V/usr/share/fonts/truetype/comfortaa/Comfortaa-Light.ttf
p324
sg20
g21
sbag1
(g8
g3
NtRp325
(dp326
g11
g12
sg13
S'Andale Mono'
p327
sg15
I400
sg16
g12
sg17
g12
sg18
V/usr/share/fonts/truetype/msttcorefonts/andalemo.ttf
p328
sg20
g21
sbag1
(g8
g3
NtRp329
(dp330
g11
g41
sg13
S'Arial'
p331
sg15
I700
sg16
g12
sg17
g12
sg18
V/usr/share/fonts/truetype/msttcorefonts/arialbi.ttf
p332
sg20
g21
sbag1
(g8
g3
NtRp333
(dp334
g11
g41
sg13
S'Liberation Sans'
p335
sg15
I400
sg16
g12
sg17
g12
sg18
V/usr/share/fonts/truetype/liberation/LiberationSans-Italic.ttf
p336
sg20
g21
sbag1
(g8
g3
NtRp337
(dp338
g11
g28
sg13
S'DejaVu Sans Mono'
p339
sg15
I400
sg16
g12
sg17
g12
sg18
V/usr/share/fonts/truetype/dejavu/DejaVuSansMono-Oblique.ttf
p340
sg20
g21
sbag1
(g8
g3
NtRp341
(dp342
g11
g12
sg13
S'STIXIntegralsUp'
p343
sg15
I700
sg16
g12
sg17
g12
sg18
V/usr/share/fonts/opentype/stix/STIXIntegralsUp-Bold.otf
p344
sg20
g21
sbag1
(g8
g3
NtRp345
(dp346
g11
g12
sg13
S'Latin Modern Roman'
p347
sg15
I700
sg16
g12
sg17
g12
sg18
V/usr/share/texmf/fonts/opentype/public/lm/lmroman12-bold.otf
p348
sg20
g21
sbag1
(g8
g3
NtRp349
(dp350
g11
g12
sg13
S'UnBatang'
p351
sg15
I400
sg16
g12
sg17
g12
sg18
V/usr/share/fonts/truetype/unfonts-core/UnBatang.ttf
p352
sg20
g21
sbag1
(g8
g3
NtRp353
(dp354
g11
g12
sg13
S'TeX Gyre Cursor'
p355
sg15
I400
sg16
g12
sg17
g12
sg18
V/usr/share/texmf/fonts/opentype/public/tex-gyre/texgyrecursor-regular.otf
p356
sg20
g21
sbag1
(g8
g3
NtRp357
(dp358
g11
g12
sg13
S'Courier New'
p359
sg15
I700
sg16
g12
sg17
g12
sg18
V/usr/share/fonts/truetype/msttcorefonts/courbd.ttf
p360
sg20
g21
sbag1
(g8
g3
NtRp361
(dp362
g11
g12
sg13
S'FontAwesome'
p363
sg15
I400
sg16
g12
sg17
g12
sg18
V/usr/share/fonts/truetype/font-awesome/fontawesome-webfont.ttf
p364
sg20
g21
sbag1
(g8
g3
NtRp365
(dp366
g11
g12
sg13
S'Trebuchet MS'
p367
sg15
I400
sg16
g12
sg17
g12
sg18
V/usr/share/fonts/truetype/msttcorefonts/Trebuchet_MS.ttf
p368
sg20
g21
sbag1
(g8
g3
NtRp369
(dp370
g11
g12
sg13
S'Droid Sans Hebrew'
p371
sg15
I700
sg16
g12
sg17
g12
sg18
V/usr/share/fonts/truetype/droid/DroidSansHebrew-Bold.ttf
p372
sg20
g21
sbag1
(g8
g3
NtRp373
(dp374
g11
g12
sg13
S'Cabin'
p375
sg15
I500
sg16
g12
sg17
g12
sg18
V/usr/share/fonts/opentype/cabin/Cabin-Medium.otf
p376
sg20
g21
sbag1
(g8
g3
NtRp377
(dp378
g11
g12
sg13
S'Droid Arabic Naskh'
p379
sg15
I700
sg16
g12
sg17
g12
sg18
V/usr/share/fonts/truetype/droid/DroidNaskh-Bold.ttf
p380
sg20
g21
sbag1
(g8
g3
NtRp381
(dp382
g11
g12
sg13
S'Ubuntu Mono'
p383
sg15
I400
sg16
g12
sg17
g12
sg18
V/usr/share/fonts/truetype/ubuntu-font-family/UbuntuMono-R.ttf
p384
sg20
g21
sbag1
(g8
g3
NtRp385
(dp386
g11
g41
sg13
S'Trebuchet MS'
p387
sg15
I400
sg16
g12
sg17
g12
sg18
V/usr/share/fonts/truetype/msttcorefonts/Trebuchet_MS_Italic.ttf
p388
sg20
g21
sbag1
(g8
g3
NtRp389
(dp390
g11
g12
sg13
S'Liberation Serif'
p391
sg15
I700
sg16
g12
sg17
g12
sg18
V/usr/share/fonts/truetype/ttf-liberation/LiberationSerif-Bold.ttf
p392
sg20
g21
sbag1
(g8
g3
NtRp393
(dp394
g11
g12
sg13
S'UnDinaru'
p395
sg15
I400
sg16
g12
sg17
g12
sg18
V/usr/share/fonts/truetype/unfonts-core/UnDinaru.ttf
p396
sg20
g21
sbag1
(g8
g3
NtRp397
(dp398
g11
g12
sg13
S'Droid Serif'
p399
sg15
I400
sg16
g12
sg17
g12
sg18
V/usr/share/fonts/truetype/droid/DroidSerif-Regular.ttf
p400
sg20
g21
sbag1
(g8
g3
NtRp401
(dp402
g11
g12
sg13
S'Latin Modern Roman'
p403
sg15
I400
sg16
g12
sg17
g12
sg18
V/usr/share/texmf/fonts/opentype/public/lm/lmroman5-regular.otf
p404
sg20
g21
sbag1
(g8
g3
NtRp405
(dp406
g11
g12
sg13
S'Arial'
p407
sg15
I400
sg16
g12
sg17
g12
sg18
V/usr/share/fonts/truetype/msttcorefonts/Arial.ttf
p408
sg20
g21
sbag1
(g8
g3
NtRp409
(dp410
g11
g12
sg13
S'Times New Roman'
p411
sg15
I500
sg16
g12
sg17
g12
sg18
V/usr/share/fonts/truetype/msttcorefonts/times.ttf
p412
sg20
g21
sbag1
(g8
g3
NtRp413
(dp414
g11
g12
sg13
S'Ume Gothic C5'
p415
sg15
I400
sg16
g12
sg17
g12
sg18
V/usr/share/fonts/truetype/horai-umefont/ume-tgc5.ttf
p416
sg20
g21
sbag1
(g8
g3
NtRp417
(dp418
g11
g12
sg13
S'FreeSerif'
p419
sg15
I700
sg16
g12
sg17
g12
sg18
V/usr/share/fonts/opentype/freefont/FreeSerifBold.otf
p420
sg20
g21
sbag1
(g8
g3
NtRp421
(dp422
g11
g12
sg13
S'UnGraphic'
p423
sg15
I700
sg16
g12
sg17
g12
sg18
V/usr/share/fonts/truetype/unfonts-core/UnGraphicBold.ttf
p424
sg20
g21
sbag1
(g8
g3
NtRp425
(dp426
g11
g41
sg13
S'Latin Modern Mono'
p427
sg15
I400
sg16
g12
sg17
g12
sg18
V/usr/share/texmf/fonts/opentype/public/lm/lmmono10-italic.otf
p428
sg20
g21
sbag1
(g8
g3
NtRp429
(dp430
g11
g12
sg13
S'FreeSans'
p431
sg15
I400
sg16
g12
sg17
g12
sg18
V/usr/share/fonts/opentype/freefont/FreeSans.otf
p432
sg20
g21
sbag1
(g8
g3
NtRp433
(dp434
g11
g12
sg13
S'KacstNaskh'
p435
sg15
I400
sg16
g12
sg17
g12
sg18
V/usr/share/fonts/truetype/kacst/KacstNaskh.ttf
p436
sg20
g21
sbag1
(g8
g3
NtRp437
(dp438
g11
g12
sg13
S'Trebuchet MS'
p439
sg15
I400
sg16
g12
sg17
g12
sg18
V/usr/share/fonts/truetype/msttcorefonts/trebuc.ttf
p440
sg20
g21
sbag1
(g8
g3
NtRp441
(dp442
g11
g41
sg13
S'Kinnari'
p443
sg15
I700
sg16
g12
sg17
g12
sg18
V/usr/share/fonts/truetype/tlwg/Kinnari-BoldItalic.ttf
p444
sg20
g21
sbag1
(g8
g3
NtRp445
(dp446
g11
g12
sg13
S'Sawasdee'
p447
sg15
I400
sg16
g12
sg17
g12
sg18
V/usr/share/fonts/truetype/tlwg/Sawasdee.ttf
p448
sg20
g21
sbag1
(g8
g3
NtRp449
(dp450
g11
g12
sg13
S'STIXSizeThreeSym'
p451
sg15
I400
sg16
g12
sg17
g12
sg18
V/usr/share/fonts/opentype/stix/STIXSizeThreeSym-Regular.otf
p452
sg20
g21
sbag1
(g8
g3
NtRp453
(dp454
g11
g28
sg13
S'DejaVu Sans Mono'
p455
sg15
I700
sg16
g12
sg17
g12
sg18
V/usr/share/fonts/truetype/dejavu/DejaVuSansMono-BoldOblique.ttf
p456
sg20
g21
sbag1
(g8
g3
NtRp457
(dp458
g11
g12
sg13
S'UnDinaru'
p459
sg15
I700
sg16
g12
sg17
g12
sg18
V/usr/share/fonts/truetype/unfonts-core/UnDinaruBold.ttf
p460
sg20
g21
sbag1
(g8
g3
NtRp461
(dp462
g11
g12
sg13
S'FreeSans'
p463
sg15
I700
sg16
g12
sg17
g12
sg18
V/usr/share/fonts/truetype/freefont/FreeSansBold.ttf
p464
sg20
g21
sbag1
(g8
g3
NtRp465
(dp466
g11
g12
sg13
S'TeX Gyre Heros Cn'
p467
sg15
I400
sg16
g12
sg17
g12
sg18
V/usr/share/texmf/fonts/opentype/public/tex-gyre/texgyreheroscn-regular.otf
p468
sg20
g21
sbag1
(g8
g3
NtRp469
(dp470
g11
g12
sg13
S'Latin Modern Mono'
p471
sg15
I400
sg16
g12
sg17
g12
sg18
V/usr/share/texmf/fonts/opentype/public/lm/lmmono8-regular.otf
p472
sg20
g21
sbag1
(g8
g3
NtRp473
(dp474
g11
g12
sg13
S'Purisa'
p475
sg15
I700
sg16
g12
sg17
g12
sg18
V/usr/share/fonts/truetype/tlwg/Purisa-Bold.ttf
p476
sg20
g21
sbag1
(g8
g3
NtRp477
(dp478
g11
g12
sg13
S'Tlwg Typist'
p479
sg15
I700
sg16
g12
sg17
g12
sg18
V/usr/share/fonts/truetype/tlwg/TlwgTypist-Bold.ttf
p480
sg20
g21
sbag1
(g8
g3
NtRp481
(dp482
g11
g28
sg13
S'Latin Modern Mono Prop'
p483
sg15
I400
sg16
g12
sg17
g12
sg18
V/usr/share/texmf/fonts/opentype/public/lm/lmmonoprop10-oblique.otf
p484
sg20
g21
sbag1
(g8
g3
NtRp485
(dp486
g11
g12
sg13
S'KacstPoster'
p487
sg15
I400
sg16
g12
sg17
g12
sg18
V/usr/share/fonts/truetype/kacst/KacstPoster.ttf
p488
sg20
g21
sbag1
(g8
g3
NtRp489
(dp490
g11
g12
sg13
S'Purisa'
p491
sg15
I400
sg16
g12
sg17
g12
sg18
V/usr/share/fonts/truetype/tlwg/Purisa.ttf
p492
sg20
g21
sbag1
(g8
g3
NtRp493
(dp494
g11
g12
sg13
S'STIXSizeOneSym'
p495
sg15
I700
sg16
g12
sg17
g12
sg18
V/usr/share/fonts/opentype/stix/STIXSizeOneSym-Bold.otf
p496
sg20
g21
sbag1
(g8
g3
NtRp497
(dp498
g11
g41
sg13
S'Accanthis ADF Std No3'
p499
sg15
I400
sg16
g12
sg17
g12
sg18
V/usr/share/fonts/truetype/adf/AccanthisADFStdNo3-Italic.otf
p500
sg20
g21
sbag1
(g8
g3
NtRp501
(dp502
g11
g41
sg13
S'Georgia'
p503
sg15
I400
sg16
g12
sg17
g12
sg18
V/usr/share/fonts/truetype/msttcorefonts/Georgia_Italic.ttf
p504
sg20
g21
sbag1
(g8
g3
NtRp505
(dp506
g11
g41
sg13
S'Ubuntu'
p507
sg15
I200
sg16
g12
sg17
g12
sg18
V/usr/share/fonts/truetype/ubuntu-font-family/Ubuntu-LI.ttf
p508
sg20
g21
sbag1
(g8
g3
NtRp509
(dp510
g11
g12
sg13
S'Droid Sans Mono'
p511
sg15
I400
sg16
g12
sg17
g12
sg18
V/usr/share/fonts/truetype/droid/DroidSansMono.ttf
p512
sg20
g21
sbag1
(g8
g3
NtRp513
(dp514
g11
g12
sg13
S'Latin Modern Sans'
p515
sg15
I700
sg16
g12
sg17
g12
sg18
V/usr/share/texmf/fonts/opentype/public/lm/lmsans10-bold.otf
p516
sg20
g21
sbag1
(g8
g3
NtRp517
(dp518
g11
g12
sg13
S'FreeSerif'
p519
sg15
I400
sg16
g12
sg17
g12
sg18
V/usr/share/fonts/opentype/freefont/FreeSerif.otf
p520
sg20
g21
sbag1
(g8
g3
NtRp521
(dp522
g11
g12
sg13
S'GFS Didot'
p523
sg15
I400
sg16
g12
sg17
g12
sg18
V/usr/share/fonts/truetype/didot/GFSDidot.otf
p524
sg20
g21
sbag1
(g8
g3
NtRp525
(dp526
g11
g28
sg13
S'Umpush'
p527
sg15
I400
sg16
g12
sg17
g12
sg18
V/usr/share/fonts/truetype/tlwg/Umpush-Oblique.ttf
p528
sg20
g21
sbag1
(g8
g3
NtRp529
(dp530
g11
g12
sg13
S'NanumGothic'
p531
sg15
I700
sg16
g12
sg17
g12
sg18
V/usr/share/fonts/truetype/nanum/NanumGothicBold.ttf
p532
sg20
g21
sbag1
(g8
g3
NtRp533
(dp534
g11
g41
sg13
S'Liberation Mono'
p535
sg15
I700
sg16
g12
sg17
g12
sg18
V/usr/share/fonts/truetype/liberation/LiberationMono-BoldItalic.ttf
p536
sg20
g21
sbag1
(g8
g3
NtRp537
(dp538
g11
g12
sg13
S'GFS Baskerville'
p539
sg15
I400
sg16
g12
sg17
g12
sg18
V/usr/share/fonts/truetype/baskerville/GFSBaskerville.otf
p540
sg20
g21
sbag1
(g8
g3
NtRp541
(dp542
g11
g41
sg13
S'FreeSerif'
p543
sg15
I400
sg16
g12
sg17
g12
sg18
V/usr/share/fonts/opentype/freefont/FreeSerifItalic.otf
p544
sg20
g21
sbag1
(g8
g3
NtRp545
(dp546
g11
g41
sg13
S'Gillius ADF'
p547
sg15
I700
sg16
g12
sg17
g12
sg18
V/usr/share/fonts/truetype/adf/GilliusADF-BoldItalic.otf
p548
sg20
g21
sbag1
(g8
g3
NtRp549
(dp550
g11
g12
sg13
S'Ubuntu Condensed'
p551
sg15
I400
sg16
g275
sg17
g12
sg18
V/usr/share/fonts/truetype/ubuntu-font-family/Ubuntu-C.ttf
p552
sg20
g21
sbag1
(g8
g3
NtRp553
(dp554
g11
g12
sg13
S'IPAGothic'
p555
sg15
I400
sg16
g12
sg17
g12
sg18
V/usr/share/fonts/opentype/ipafont-gothic/ipag.ttf
p556
sg20
g21
sbag1
(g8
g3
NtRp557
(dp558
g11
g12
sg13
S'OpenSymbol'
p559
sg15
I400
sg16
g12
sg17
g12
sg18
V/usr/share/fonts/truetype/openoffice/opens___.ttf
p560
sg20
g21
sbag1
(g8
g3
NtRp561
(dp562
g11
g12
sg13
S'Cabin'
p563
sg15
I700
sg16
g12
sg17
g12
sg18
V/usr/share/fonts/opentype/cabin/Cabin-Bold.otf
p564
sg20
g21
sbag1
(g8
g3
NtRp565
(dp566
g11
g41
sg13
S'Norasi'
p567
sg15
I400
sg16
g12
sg17
g12
sg18
V/usr/share/fonts/truetype/tlwg/Norasi-Italic.ttf
p568
sg20
g21
sbag1
(g8
g3
NtRp569
(dp570
g11
g12
sg13
S'Droid Sans Fallback'
p571
sg15
I400
sg16
g12
sg17
g12
sg18
V/usr/share/fonts/truetype/droid/DroidSansFallbackFull.ttf
p572
sg20
g21
sbag1
(g8
g3
NtRp573
(dp574
g11
g12
sg13
S'Khmer OS System'
p575
sg15
I400
sg16
g12
sg17
g12
sg18
V/usr/share/fonts/truetype/ttf-khmeros-core/KhmerOSsys.ttf
p576
sg20
g21
sbag1
(g8
g3
NtRp577
(dp578
g11
g28
sg13
S'Tlwg Typist'
p579
sg15
I400
sg16
g12
sg17
g12
sg18
V/usr/share/fonts/truetype/tlwg/TlwgTypist-Oblique.ttf
p580
sg20
g21
sbag1
(g8
g3
NtRp581
(dp582
g11
g12
sg13
S'Norasi'
p583
sg15
I400
sg16
g12
sg17
g12
sg18
V/usr/share/fonts/truetype/tlwg/Norasi.ttf
p584
sg20
g21
sbag1
(g8
g3
NtRp585
(dp586
g11
g41
sg13
S'Amiri'
p587
sg15
I700
sg16
g12
sg17
g12
sg18
V/usr/share/fonts/opentype/fonts-hosny-amiri/amiri-boldslanted.ttf
p588
sg20
g21
sbag1
(g8
g3
NtRp589
(dp590
g11
g41
sg13
S'Latin Modern Roman'
p591
sg15
I500
sg16
g12
sg17
g12
sg18
V/usr/share/texmf/fonts/opentype/public/lm/lmroman12-italic.otf
p592
sg20
g21
sbag1
(g8
g3
NtRp593
(dp594
g11
g12
sg13
S'Mukti Narrow'
p595
sg15
I700
sg16
g12
sg17
g12
sg18
V/usr/share/fonts/truetype/ttf-indic-fonts-core/MuktiNarrowBold.ttf
p596
sg20
g21
sbag1
(g8
g3
NtRp597
(dp598
g11
g41
sg13
S'Trebuchet MS'
p599
sg15
I700
sg16
g12
sg17
g12
sg18
V/usr/share/fonts/truetype/msttcorefonts/trebucbi.ttf
p600
sg20
g21
sbag1
(g8
g3
NtRp601
(dp602
g11
g12
sg13
S'Verdana'
p603
sg15
I700
sg16
g12
sg17
g12
sg18
V/usr/share/fonts/truetype/msttcorefonts/verdanab.ttf
p604
sg20
g21
sbag1
(g8
g3
NtRp605
(dp606
g11
g12
sg13
S'Latin Modern Sans'
p607
sg15
I400
sg16
g12
sg17
g12
sg18
V/usr/share/texmf/fonts/opentype/public/lm/lmsans12-regular.otf
p608
sg20
g21
sbag1
(g8
g3
NtRp609
(dp610
g11
g12
sg13
S'FreeSerif'
p611
sg15
I700
sg16
g12
sg17
g12
sg18
V/usr/share/fonts/truetype/freefont/FreeSerifBold.ttf
p612
sg20
g21
sbag1
(g8
g3
NtRp613
(dp614
g11
g12
sg13
S'Liberation Serif'
p615
sg15
I400
sg16
g12
sg17
g12
sg18
V/usr/share/fonts/truetype/ttf-liberation/LiberationSerif-Regular.ttf
p616
sg20
g21
sbag1
(g8
g3
NtRp617
(dp618
g11
g12
sg13
S'NanumBarunGothic'
p619
sg15
I400
sg16
g12
sg17
g12
sg18
V/usr/share/fonts/truetype/nanum/NanumBarunGothic.ttf
p620
sg20
g21
sbag1
(g8
g3
NtRp621
(dp622
g11
g41
sg13
S'Latin Modern Roman'
p623
sg15
I500
sg16
g12
sg17
g12
sg18
V/usr/share/texmf/fonts/opentype/public/lm/lmroman7-italic.otf
p624
sg20
g21
sbag1
(g8
g3
NtRp625
(dp626
g11
g12
sg13
S'UnDinaru'
p627
sg15
I200
sg16
g12
sg17
g12
sg18
V/usr/share/fonts/truetype/unfonts-core/UnDinaruLight.ttf
p628
sg20
g21
sbag1
(g8
g3
NtRp629
(dp630
g11
g12
sg13
S'Latin Modern Math'
p631
sg15
I400
sg16
g12
sg17
g12
sg18
V/usr/share/texmf/fonts/opentype/public/lm-math/latinmodernmath-regular.otf
p632
sg20
g21
sbag1
(g8
g3
NtRp633
(dp634
g11
g41
sg13
S'Latin Modern Roman'
p635
sg15
I500
sg16
g12
sg17
g12
sg18
V/usr/share/texmf/fonts/opentype/public/lm/lmroman9-italic.otf
p636
sg20
g21
sbag1
(g8
g3
NtRp637
(dp638
g11
g12
sg13
S'MathJax_WinChrome'
p639
sg15
I400
sg16
g12
sg17
g12
sg18
V/usr/share/fonts/opentype/mathjax/MathJax_WinChrome-Regular.otf
p640
sg20
g21
sbag1
(g8
g3
NtRp641
(dp642
g11
g12
sg13
S'STIXIntegralsD'
p643
sg15
I400
sg16
g12
sg17
g12
sg18
V/usr/share/fonts/opentype/stix/STIXIntegralsD-Regular.otf
p644
sg20
g21
sbag1
(g8
g3
NtRp645
(dp646
g11
g12
sg13
S'TeX Gyre Termes'
p647
sg15
I400
sg16
g12
sg17
g12
sg18
V/usr/share/texmf/fonts/opentype/public/tex-gyre/texgyretermes-regular.otf
p648
sg20
g21
sbag1
(g8
g3
NtRp649
(dp650
g11
g12
sg13
S'Lohit Tamil'
p651
sg15
I400
sg16
g12
sg17
g12
sg18
V/usr/share/fonts/truetype/ttf-indic-fonts-core/lohit_ta.ttf
p652
sg20
g21
sbag1
(g8
g3
NtRp653
(dp654
g11
g41
sg13
S'Lobster Two'
p655
sg15
I700
sg16
g12
sg17
g12
sg18
V/usr/share/fonts/opentype/lobstertwo/LobsterTwo-BoldItalic.otf
p656
sg20
g21
sbag1
(g8
g3
NtRp657
(dp658
g11
g12
sg13
S'Kinnari'
p659
sg15
I400
sg16
g12
sg17
g12
sg18
V/usr/share/fonts/truetype/tlwg/Kinnari.ttf
p660
sg20
g21
sbag1
(g8
g3
NtRp661
(dp662
g11
g12
sg13
S'Latin Modern Sans'
p663
sg15
I400
sg16
g12
sg17
g12
sg18
V/usr/share/texmf/fonts/opentype/public/lm/lmsans8-regular.otf
p664
sg20
g21
sbag1
(g8
g3
NtRp665
(dp666
g11
g12
sg13
S'STIXGeneral'
p667
sg15
I400
sg16
g12
sg17
g12
sg18
V/usr/share/fonts/opentype/stix/STIXGeneral-Regular.otf
p668
sg20
g21
sbag1
(g8
g3
NtRp669
(dp670
g11
g12
sg13
S'Junicode'
p671
sg15
I700
sg16
g12
sg17
g12
sg18
V/usr/share/fonts/truetype/junicode/Junicode-Bold.ttf
p672
sg20
g21
sbag1
(g8
g3
NtRp673
(dp674
g11
g12
sg13
S'Times New Roman'
p675
sg15
I700
sg16
g12
sg17
g12
sg18
V/usr/share/fonts/truetype/msttcorefonts/timesbd.ttf
p676
sg20
g21
sbag1
(g8
g3
NtRp677
(dp678
g11
g12
sg13
S'Trebuchet MS'
p679
sg15
I700
sg16
g12
sg17
g12
sg18
V/usr/share/fonts/truetype/msttcorefonts/Trebuchet_MS_Bold.ttf
p680
sg20
g21
sbag1
(g8
g3
NtRp681
(dp682
g11
g12
sg13
S'UnDotum'
p683
sg15
I400
sg16
g12
sg17
g12
sg18
V/usr/share/fonts/truetype/unfonts-core/UnDotum.ttf
p684
sg20
g21
sbag1
(g8
g3
NtRp685
(dp686
g11
g12
sg13
S'Ume Gothic S5'
p687
sg15
I400
sg16
g12
sg17
g12
sg18
V/usr/share/fonts/truetype/horai-umefont/ume-tgs5.ttf
p688
sg20
g21
sbag1
(g8
g3
NtRp689
(dp690
g11
g41
sg13
S'GFS Didot'
p691
sg15
I400
sg16
g12
sg17
g12
sg18
V/usr/share/fonts/truetype/didot/GFSDidotItalic.otf
p692
sg20
g21
sbag1
(g8
g3
NtRp693
(dp694
g11
g41
sg13
S'TeX Gyre Pagella'
p695
sg15
I400
sg16
g12
sg17
g12
sg18
V/usr/share/texmf/fonts/opentype/public/tex-gyre/texgyrepagella-italic.otf
p696
sg20
g21
sbag1
(g8
g3
NtRp697
(dp698
g11
g12
sg13
S'TlwgMono'
p699
sg15
I400
sg16
g12
sg17
g12
sg18
V/usr/share/fonts/truetype/tlwg/TlwgMono.ttf
p700
sg20
g21
sbag1
(g8
g3
NtRp701
(dp702
g11
g12
sg13
S'Latin Modern Roman Caps'
p703
sg15
I400
sg16
g12
sg17
g12
sg18
V/usr/share/texmf/fonts/opentype/public/lm/lmromancaps10-regular.otf
p704
sg20
g21
sbag1
(g8
g3
NtRp705
(dp706
g11
g12
sg13
S'Arial'
p707
sg15
I700
sg16
g12
sg17
g12
sg18
V/usr/share/fonts/truetype/msttcorefonts/Arial_Bold.ttf
p708
sg20
g21
sbag1
(g8
g3
NtRp709
(dp710
g11
g41
sg13
S'Lato'
p711
sg15
I400
sg16
g12
sg17
g12
sg18
V/usr/share/fonts/truetype/lato/Lato-HaiIta.ttf
p712
sg20
g21
sbag1
(g8
g3
NtRp713
(dp714
g11
g41
sg13
S'Times New Roman'
p715
sg15
I700
sg16
g12
sg17
g12
sg18
V/usr/share/fonts/truetype/msttcorefonts/timesbi.ttf
p716
sg20
g21
sbag1
(g8
g3
NtRp717
(dp718
g11
g28
sg13
S'Purisa'
p719
sg15
I400
sg16
g12
sg17
g12
sg18
V/usr/share/fonts/truetype/tlwg/Purisa-Oblique.ttf
p720
sg20
g21
sbag1
(g8
g3
NtRp721
(dp722
g11
g41
sg13
S'Kinnari'
p723
sg15
I400
sg16
g12
sg17
g12
sg18
V/usr/share/fonts/truetype/tlwg/Kinnari-Italic.ttf
p724
sg20
g21
sbag1
(g8
g3
NtRp725
(dp726
g11
g12
sg13
S'STIXSizeOneSym'
p727
sg15
I400
sg16
g12
sg17
g12
sg18
V/usr/share/fonts/opentype/stix/STIXSizeOneSym-Regular.otf
p728
sg20
g21
sbag1
(g8
g3
NtRp729
(dp730
g11
g12
sg13
S'Saab'
p731
sg15
I400
sg16
g12
sg17
g12
sg18
V/usr/share/fonts/truetype/ttf-punjabi-fonts/Saab.ttf
p732
sg20
g21
sbag1
(g8
g3
NtRp733
(dp734
g11
g12
sg13
S'Impact'
p735
sg15
I400
sg16
g12
sg17
g12
sg18
V/usr/share/fonts/truetype/msttcorefonts/impact.ttf
p736
sg20
g21
sbag1
(g8
g3
NtRp737
(dp738
g11
g12
sg13
S'Gillius ADF No2 Cd'
p739
sg15
I400
sg16
g12
sg17
g12
sg18
V/usr/share/fonts/truetype/adf/GilliusADFNo2Cd-Regular.otf
p740
sg20
g21
sbag1
(g8
g3
NtRp741
(dp742
g11
g41
sg13
S'Ubuntu Mono'
p743
sg15
I400
sg16
g12
sg17
g12
sg18
V/usr/share/fonts/truetype/ubuntu-font-family/UbuntuMono-RI.ttf
p744
sg20
g21
sbag1
(g8
g3
NtRp745
(dp746
g11
g12
sg13
S'KacstLetter'
p747
sg15
I400
sg16
g12
sg17
g12
sg18
V/usr/share/fonts/truetype/kacst/KacstLetter.ttf
p748
sg20
g21
sbag1
(g8
g3
NtRp749
(dp750
g11
g12
sg13
S'DejaVu Sans'
p751
sg15
I700
sg16
g275
sg17
g12
sg18
V/usr/share/fonts/truetype/dejavu/DejaVuSansCondensed-Bold.ttf
p752
sg20
g21
sbag1
(g8
g3
NtRp753
(dp754
g11
g12
sg13
S'Mukti Narrow'
p755
sg15
I400
sg16
g12
sg17
g12
sg18
V/usr/share/fonts/truetype/ttf-indic-fonts-core/MuktiNarrow.ttf
p756
sg20
g21
sbag1
(g8
g3
NtRp757
(dp758
g11
g41
sg13
S'GFS Neohellenic'
p759
sg15
I700
sg16
g12
sg17
g12
sg18
V/usr/share/fonts/truetype/neohellenic/GFSNeohellenicBoldIt.otf
p760
sg20
g21
sbag1
(g8
g3
NtRp761
(dp762
g11
g41
sg13
S'Gillius ADF'
p763
sg15
I400
sg16
g12
sg17
g12
sg18
V/usr/share/fonts/truetype/adf/GilliusADF-Italic.otf
p764
sg20
g21
sbag1
(g8
g3
NtRp765
(dp766
g11
g12
sg13
S'TeX Gyre Heros Cn'
p767
sg15
I700
sg16
g12
sg17
g12
sg18
V/usr/share/texmf/fonts/opentype/public/tex-gyre/texgyreheroscn-bold.otf
p768
sg20
g21
sbag1
(g8
g3
NtRp769
(dp770
g11
g12
sg13
S'Amiri'
p771
sg15
I700
sg16
g12
sg17
g12
sg18
V/usr/share/fonts/opentype/fonts-hosny-amiri/amiri-bold.ttf
p772
sg20
g21
sbag1
(g8
g3
NtRp773
(dp774
g11
g12
sg13
S'msam10'
p775
sg15
I400
sg16
g12
sg17
g12
sg18
V/usr/share/fonts/truetype/lyx/msam10.ttf
p776
sg20
g21
sbag1
(g8
g3
NtRp777
(dp778
g11
g12
sg13
S'Ubuntu'
p779
sg15
I500
sg16
g12
sg17
g12
sg18
V/usr/share/fonts/truetype/ubuntu-font-family/Ubuntu-M.ttf
p780
sg20
g21
sbag1
(g8
g3
NtRp781
(dp782
g11
g12
sg13
S'GFS Artemisia'
p783
sg15
I400
sg16
g12
sg17
g12
sg18
V/usr/share/fonts/truetype/artemisia/GFSArtemisia.otf
p784
sg20
g21
sbag1
(g8
g3
NtRp785
(dp786
g11
g12
sg13
S'Ume Gothic O5'
p787
sg15
I400
sg16
g12
sg17
g12
sg18
V/usr/share/fonts/truetype/horai-umefont/ume-tgo5.ttf
p788
sg20
g21
sbag1
(g8
g3
NtRp789
(dp790
g11
g12
sg13
S'Garuda'
p791
sg15
I700
sg16
g12
sg17
g12
sg18
V/usr/share/fonts/truetype/tlwg/Garuda-Bold.ttf
p792
sg20
g21
sbag1
(g8
g3
NtRp793
(dp794
g11
g28
sg13
S'Tlwg Typist'
p795
sg15
I700
sg16
g12
sg17
g12
sg18
V/usr/share/fonts/truetype/tlwg/TlwgTypist-BoldOblique.ttf
p796
sg20
g21
sbag1
(g8
g3
NtRp797
(dp798
g11
g12
sg13
S'Linux Libertine Mono O'
p799
sg15
I400
sg16
g12
sg17
g12
sg18
V/usr/share/fonts/opentype/linux-libertine/LinLibertine_M.otf
p800
sg20
g21
sbag1
(g8
g3
NtRp801
(dp802
g11
g28
sg13
S'FreeSans'
p803
sg15
I400
sg16
g12
sg17
g12
sg18
V/usr/share/fonts/opentype/freefont/FreeSansOblique.otf
p804
sg20
g21
sbag1
(g8
g3
NtRp805
(dp806
g11
g41
sg13
S'Verdana'
p807
sg15
I700
sg16
g12
sg17
g12
sg18
V/usr/share/fonts/truetype/msttcorefonts/verdanaz.ttf
p808
sg20
g21
sbag1
(g8
g3
NtRp809
(dp810
g11
g41
sg13
S'Ubuntu'
p811
sg15
I700
sg16
g12
sg17
g12
sg18
V/usr/share/fonts/truetype/ubuntu-font-family/Ubuntu-BI.ttf
p812
sg20
g21
sbag1
(g8
g3
NtRp813
(dp814
g11
g41
sg13
S'Linux Libertine O'
p815
sg15
I700
sg16
g12
sg17
g12
sg18
V/usr/share/fonts/opentype/linux-libertine/LinLibertine_RZI.otf
p816
sg20
g21
sbag1
(g8
g3
NtRp817
(dp818
g11
g12
sg13
S'MathJax_Script'
p819
sg15
I400
sg16
g12
sg17
g12
sg18
V/usr/share/fonts/opentype/mathjax/MathJax_Script-Regular.otf
p820
sg20
g21
sbag1
(g8
g3
NtRp821
(dp822
g11
g12
sg13
S'Droid Sans Armenian'
p823
sg15
I400
sg16
g12
sg17
g12
sg18
V/usr/share/fonts/truetype/droid/DroidSansArmenian.ttf
p824
sg20
g21
sbag1
(g8
g3
NtRp825
(dp826
g11
g12
sg13
S'Linux Libertine O'
p827
sg15
I400
sg16
g12
sg17
g12
sg18
V/usr/share/fonts/opentype/linux-libertine/LinLibertine_R.otf
p828
sg20
g21
sbag1
(g8
g3
NtRp829
(dp830
g11
g12
sg13
S'DejaVu Sans Mono'
p831
sg15
I700
sg16
g12
sg17
g12
sg18
V/usr/share/fonts/truetype/dejavu/DejaVuSansMono-Bold.ttf
p832
sg20
g21
sbag1
(g8
g3
NtRp833
(dp834
g11
g28
sg13
S'DejaVu Sans'
p835
sg15
I400
sg16
g275
sg17
g12
sg18
V/usr/share/fonts/truetype/dejavu/DejaVuSansCondensed-Oblique.ttf
p836
sg20
g21
sbag1
(g8
g3
NtRp837
(dp838
g11
g28
sg13
S'DejaVu Sans'
p839
sg15
I400
sg16
g12
sg17
g12
sg18
V/usr/share/fonts/truetype/dejavu/DejaVuSans-Oblique.ttf
p840
sg20
g21
sbag1
(g8
g3
NtRp841
(dp842
g11
g12
sg13
S'NanumBarunGothic'
p843
sg15
I700
sg16
g12
sg17
g12
sg18
V/usr/share/fonts/truetype/nanum/NanumBarunGothicBold.ttf
p844
sg20
g21
sbag1
(g8
g3
NtRp845
(dp846
g11
g12
sg13
S'Ume P Gothic'
p847
sg15
I400
sg16
g12
sg17
g12
sg18
V/usr/share/fonts/truetype/horai-umefont/ume-pgo4.ttf
p848
sg20
g21
sbag1
(g8
g3
NtRp849
(dp850
g11
g41
sg13
S'Junicode'
p851
sg15
I700
sg16
g12
sg17
g12
sg18
V/usr/share/fonts/truetype/junicode/Junicode-BoldItalic.ttf
p852
sg20
g21
sbag1
(g8
g3
NtRp853
(dp854
g11
g12
sg13
S'MathJax_Size4'
p855
sg15
I400
sg16
g12
sg17
g12
sg18
V/usr/share/fonts/opentype/mathjax/MathJax_Size4-Regular.otf
p856
sg20
g21
sbag1
(g8
g3
NtRp857
(dp858
g11
g41
sg13
S'TeX Gyre Bonum'
p859
sg15
I700
sg16
g12
sg17
g12
sg18
V/usr/share/texmf/fonts/opentype/public/tex-gyre/texgyrebonum-bolditalic.otf
p860
sg20
g21
sbag1
(g8
g3
NtRp861
(dp862
g11
g12
sg13
S'TlwgMono'
p863
sg15
I700
sg16
g12
sg17
g12
sg18
V/usr/share/fonts/truetype/tlwg/TlwgMono-Bold.ttf
p864
sg20
g21
sbag1
(g8
g3
NtRp865
(dp866
g11
g41
sg13
S'Liberation Mono'
p867
sg15
I400
sg16
g12
sg17
g12
sg18
V/usr/share/fonts/truetype/liberation/LiberationMono-Italic.ttf
p868
sg20
g21
sbag1
(g8
g3
NtRp869
(dp870
g11
g41
sg13
S'Liberation Serif'
p871
sg15
I700
sg16
g12
sg17
g12
sg18
V/usr/share/fonts/truetype/liberation/LiberationSerif-BoldItalic.ttf
p872
sg20
g21
sbag1
(g8
g3
NtRp873
(dp874
g11
g41
sg13
S'Liberation Sans Narrow'
p875
sg15
I400
sg16
g275
sg17
g12
sg18
V/usr/share/fonts/truetype/ttf-liberation/LiberationSansNarrow-Italic.ttf
p876
sg20
g21
sbag1
(g8
g3
NtRp877
(dp878
g11
g12
sg13
S'Latin Modern Mono Light'
p879
sg15
I700
sg16
g12
sg17
g12
sg18
V/usr/share/texmf/fonts/opentype/public/lm/lmmonolt10-bold.otf
p880
sg20
g21
sbag1
(g8
g3
NtRp881
(dp882
g11
g41
sg13
S'STIXGeneral'
p883
sg15
I700
sg16
g12
sg17
g12
sg18
V/usr/share/fonts/opentype/stix/STIXGeneral-BoldItalic.otf
p884
sg20
g21
sbag1
(g8
g3
NtRp885
(dp886
g11
g12
sg13
S'Waree'
p887
sg15
I700
sg16
g12
sg17
g12
sg18
V/usr/share/fonts/truetype/tlwg/Waree-Bold.ttf
p888
sg20
g21
sbag1
(g8
g3
NtRp889
(dp890
g11
g12
sg13
S'Pothana2000'
p891
sg15
I400
sg16
g12
sg17
g12
sg18
V/usr/share/fonts/truetype/ttf-indic-fonts-core/Pothana2000.ttf
p892
sg20
g21
sbag1
(g8
g3
NtRp893
(dp894
g11
g28
sg13
S'Latin Modern Mono Light'
p895
sg15
I700
sg16
g12
sg17
g12
sg18
V/usr/share/texmf/fonts/opentype/public/lm/lmmonolt10-boldoblique.otf
p896
sg20
g21
sbag1
(g8
g3
NtRp897
(dp898
g11
g12
sg13
S'DejaVu Serif'
p899
sg15
I400
sg16
g275
sg17
g12
sg18
V/usr/share/fonts/truetype/dejavu/DejaVuSerifCondensed.ttf
p900
sg20
g21
sbag1
(g8
g3
NtRp901
(dp902
g11
g12
sg13
S'ori1Uni'
p903
sg15
I500
sg16
g12
sg17
g12
sg18
V/usr/share/fonts/truetype/ttf-indic-fonts-core/utkal.ttf
p904
sg20
g21
sbag1
(g8
g3
NtRp905
(dp906
g11
g12
sg13
S'KacstQurn'
p907
sg15
I400
sg16
g12
sg17
g12
sg18
V/usr/share/fonts/truetype/kacst/KacstQurn.ttf
p908
sg20
g21
sbag1
(g8
g3
NtRp909
(dp910
g11
g41
sg13
S'Liberation Serif'
p911
sg15
I400
sg16
g12
sg17
g12
sg18
V/usr/share/fonts/truetype/ttf-liberation/LiberationSerif-Italic.ttf
p912
sg20
g21
sbag1
(g8
g3
NtRp913
(dp914
g11
g12
sg13
S'Latin Modern Roman'
p915
sg15
I700
sg16
g12
sg17
g12
sg18
V/usr/share/texmf/fonts/opentype/public/lm/lmroman6-bold.otf
p916
sg20
g21
sbag1
(g8
g3
NtRp917
(dp918
g11
g41
sg13
S'TeX Gyre Termes'
p919
sg15
I400
sg16
g12
sg17
g12
sg18
V/usr/share/texmf/fonts/opentype/public/tex-gyre/texgyretermes-italic.otf
p920
sg20
g21
sbag1
(g8
g3
NtRp921
(dp922
g11
g28
sg13
S'FreeMono'
p923
sg15
I700
sg16
g12
sg17
g12
sg18
V/usr/share/fonts/opentype/freefont/FreeMonoBoldOblique.otf
p924
sg20
g21
sbag1
(g8
g3
NtRp925
(dp926
g11
g12
sg13
S'Latin Modern Mono Prop'
p927
sg15
I400
sg16
g12
sg17
g12
sg18
V/usr/share/texmf/fonts/opentype/public/lm/lmmonoprop10-regular.otf
p928
sg20
g21
sbag1
(g8
g3
NtRp929
(dp930
g11
g12
sg13
S'Norasi'
p931
sg15
I700
sg16
g12
sg17
g12
sg18
V/usr/share/fonts/truetype/tlwg/Norasi-Bold.ttf
p932
sg20
g21
sbag1
(g8
g3
NtRp933
(dp934
g11
g41
sg13
S'TeX Gyre Heros'
p935
sg15
I400
sg16
g12
sg17
g12
sg18
V/usr/share/texmf/fonts/opentype/public/tex-gyre/texgyreheros-italic.otf
p936
sg20
g21
sbag1
(g8
g3
NtRp937
(dp938
g11
g41
sg13
S'Courier New'
p939
sg15
I700
sg16
g12
sg17
g12
sg18
V/usr/share/fonts/truetype/msttcorefonts/courbi.ttf
p940
sg20
g21
sbag1
(g8
g3
NtRp941
(dp942
g11
g41
sg13
S'TeX Gyre Heros Cn'
p943
sg15
I700
sg16
g12
sg17
g12
sg18
V/usr/share/texmf/fonts/opentype/public/tex-gyre/texgyreheroscn-bolditalic.otf
p944
sg20
g21
sbag1
(g8
g3
NtRp945
(dp946
g11
g28
sg13
S'Kinnari'
p947
sg15
I700
sg16
g12
sg17
g12
sg18
V/usr/share/fonts/truetype/tlwg/Kinnari-BoldOblique.ttf
p948
sg20
g21
sbag1
(g8
g3
NtRp949
(dp950
g11
g12
sg13
S'Mallige'
p951
sg15
I400
sg16
g12
sg17
g12
sg18
V/usr/share/fonts/truetype/ttf-indic-fonts-core/Malige-n.ttf
p952
sg20
g21
sbag1
(g8
g3
NtRp953
(dp954
g11
g12
sg13
S'Georgia'
p955
sg15
I400
sg16
g12
sg17
g12
sg18
V/usr/share/fonts/truetype/msttcorefonts/georgia.ttf
p956
sg20
g21
sbag1
(g8
g3
NtRp957
(dp958
g11
g12
sg13
S'KacstOne'
p959
sg15
I400
sg16
g12
sg17
g12
sg18
V/usr/share/fonts/truetype/kacst-one/KacstOne.ttf
p960
sg20
g21
sbag1
(g8
g3
NtRp961
(dp962
g11
g12
sg13
S'Lohit Gujarati'
p963
sg15
I400
sg16
g12
sg17
g12
sg18
V/usr/share/fonts/truetype/ttf-indic-fonts-core/lohit_gu.ttf
p964
sg20
g21
sbag1
(g8
g3
NtRp965
(dp966
g11
g41
sg13
S'TeX Gyre Schola'
p967
sg15
I700
sg16
g12
sg17
g12
sg18
V/usr/share/texmf/fonts/opentype/public/tex-gyre/texgyreschola-bolditalic.otf
p968
sg20
g21
sbag1
(g8
g3
NtRp969
(dp970
g11
g12
sg13
S'Lato'
p971
sg15
I400
sg16
g12
sg17
g12
sg18
V/usr/share/fonts/truetype/lato/Lato-Hai.ttf
p972
sg20
g21
sbag1
(g8
g3
NtRp973
(dp974
g11
g12
sg13
S'Lohit Bengali'
p975
sg15
I400
sg16
g12
sg17
g12
sg18
V/usr/share/fonts/truetype/ttf-indic-fonts-core/lohit_bn.ttf
p976
sg20
g21
sbag1
(g8
g3
NtRp977
(dp978
g11
g12
sg13
S'Gillius ADF'
p979
sg15
I700
sg16
g12
sg17
g12
sg18
V/usr/share/fonts/truetype/adf/GilliusADF-Bold.otf
p980
sg20
g21
sbag1
(g8
g3
NtRp981
(dp982
g11
g12
sg13
S'Latin Modern Roman Slanted'
p983
sg15
I400
sg16
g12
sg17
g12
sg18
V/usr/share/texmf/fonts/opentype/public/lm/lmromanslant9-regular.otf
p984
sg20
g21
sbag1
(g8
g3
NtRp985
(dp986
g11
g12
sg13
S'Latin Modern Mono Slanted'
p987
sg15
I400
sg16
g12
sg17
g12
sg18
V/usr/share/texmf/fonts/opentype/public/lm/lmmonoslant10-regular.otf
p988
sg20
g21
sbag1
(g8
g3
NtRp989
(dp990
g11
g28
sg13
S'Latin Modern Sans Quotation'
p991
sg15
I700
sg16
g12
sg17
g12
sg18
V/usr/share/texmf/fonts/opentype/public/lm/lmsansquot8-boldoblique.otf
p992
sg20
g21
sbag1
(g8
g3
NtRp993
(dp994
g11
g41
sg13
S'Gillius ADF No2 Cd'
p995
sg15
I400
sg16
g12
sg17
g12
sg18
V/usr/share/fonts/truetype/adf/GilliusADFNo2Cd-Italic.otf
p996
sg20
g21
sbag1
(g8
g3
NtRp997
(dp998
g11
g12
sg13
S'FreeMono'
p999
sg15
I700
sg16
g12
sg17
g12
sg18
V/usr/share/fonts/truetype/freefont/FreeMonoBold.ttf
p1000
sg20
g21
sbag1
(g8
g3
NtRp1001
(dp1002
g11
g12
sg13
S'Accanthis ADF Std'
p1003
sg15
I400
sg16
g12
sg17
g12
sg18
V/usr/share/fonts/truetype/adf/AccanthisADFStd-Regular.otf
p1004
sg20
g21
sbag1
(g8
g3
NtRp1005
(dp1006
g11
g12
sg13
S'KacstBook'
p1007
sg15
I400
sg16
g12
sg17
g12
sg18
V/usr/share/fonts/truetype/kacst/KacstBook.ttf
p1008
sg20
g21
sbag1
(g8
g3
NtRp1009
(dp1010
g11
g41
sg13
S'Droid Serif'
p1011
sg15
I700
sg16
g12
sg17
g12
sg18
V/usr/share/fonts/truetype/droid/DroidSerif-BoldItalic.ttf
p1012
sg20
g21
sbag1
(g8
g3
NtRp1013
(dp1014
g11
g41
sg13
S'Georgia'
p1015
sg15
I400
sg16
g12
sg17
g12
sg18
V/usr/share/fonts/truetype/msttcorefonts/georgiai.ttf
p1016
sg20
g21
sbag1
(g8
g3
NtRp1017
(dp1018
g11
g12
sg13
S'TeX Gyre Heros'
p1019
sg15
I700
sg16
g12
sg17
g12
sg18
V/usr/share/texmf/fonts/opentype/public/tex-gyre/texgyreheros-bold.otf
p1020
sg20
g21
sbag1
(g8
g3
NtRp1021
(dp1022
g11
g12
sg13
S'wasy10'
p1023
sg15
I400
sg16
g12
sg17
g12
sg18
V/usr/share/fonts/truetype/lyx/wasy10.ttf
p1024
sg20
g21
sbag1
(g8
g3
NtRp1025
(dp1026
g11
g12
sg13
S'GFS Porson'
p1027
sg15
I400
sg16
g12
sg17
g12
sg18
V/usr/share/fonts/truetype/porson/GFSPorson.otf
p1028
sg20
g21
sbag1
(g8
g3
NtRp1029
(dp1030
g11
g41
sg13
S'Lato'
p1031
sg15
I400
sg16
g12
sg17
g12
sg18
V/usr/share/fonts/truetype/lato/Lato-RegIta.ttf
p1032
sg20
g21
sbag1
(g8
g3
NtRp1033
(dp1034
g11
g12
sg13
S'STIXGeneral'
p1035
sg15
I700
sg16
g12
sg17
g12
sg18
V/usr/share/fonts/opentype/stix/STIXGeneral-Bold.otf
p1036
sg20
g21
sbag1
(g8
g3
NtRp1037
(dp1038
g11
g12
sg13
S'Comfortaa'
p1039
sg15
I400
sg16
g12
sg17
g12
sg18
V/usr/share/fonts/truetype/comfortaa/Comfortaa-Regular.ttf
p1040
sg20
g21
sbag1
(g8
g3
NtRp1041
(dp1042
g11
g12
sg13
S'DejaVu Sans'
p1043
sg15
I400
sg16
g275
sg17
g12
sg18
V/usr/share/fonts/truetype/dejavu/DejaVuSansCondensed.ttf
p1044
sg20
g21
sbag1
(g8
g3
NtRp1045
(dp1046
g11
g41
sg13
S'STIXNonUnicode'
p1047
sg15
I400
sg16
g12
sg17
g12
sg18
V/usr/share/fonts/opentype/stix/STIXNonUnicode-Italic.otf
p1048
sg20
g21
sbag1
(g8
g3
NtRp1049
(dp1050
g11
g12
sg13
S'Comfortaa'
p1051
sg15
I700
sg16
g12
sg17
g12
sg18
V/usr/share/fonts/truetype/comfortaa/Comfortaa-Bold.ttf
p1052
sg20
g21
sbag1
(g8
g3
NtRp1053
(dp1054
g11
g28
sg13
S'DejaVu Sans'
p1055
sg15
I700
sg16
g275
sg17
g12
sg18
V/usr/share/fonts/truetype/dejavu/DejaVuSansCondensed-BoldOblique.ttf
p1056
sg20
g21
sbag1
(g8
g3
NtRp1057
(dp1058
g11
g12
sg13
S'UnGungseo'
p1059
sg15
I400
sg16
g12
sg17
g12
sg18
V/usr/share/fonts/truetype/unfonts-core/UnGungseo.ttf
p1060
sg20
g21
sbag1
(g8
g3
NtRp1061
(dp1062
g11
g41
sg13
S'GentiumAlt'
p1063
sg15
I400
sg16
g12
sg17
g12
sg18
V/usr/share/fonts/truetype/gentium/GenAI102.ttf
p1064
sg20
g21
sbag1
(g8
g3
NtRp1065
(dp1066
g11
g12
sg13
S'Latin Modern Roman'
p1067
sg15
I400
sg16
g12
sg17
g12
sg18
V/usr/share/texmf/fonts/opentype/public/lm/lmroman8-regular.otf
p1068
sg20
g21
sbag1
(g8
g3
NtRp1069
(dp1070
g11
g41
sg13
S'Verdana'
p1071
sg15
I700
sg16
g12
sg17
g12
sg18
V/usr/share/fonts/truetype/msttcorefonts/Verdana_Bold_Italic.ttf
p1072
sg20
g21
sbag1
(g8
g3
NtRp1073
(dp1074
g11
g12
sg13
S'Ubuntu'
p1075
sg15
I700
sg16
g12
sg17
g12
sg18
V/usr/share/fonts/truetype/ubuntu-font-family/Ubuntu-B.ttf
p1076
sg20
g21
sbag1
(g8
g3
NtRp1077
(dp1078
g11
g28
sg13
S'FreeSans'
p1079
sg15
I700
sg16
g12
sg17
g12
sg18
V/usr/share/fonts/truetype/freefont/FreeSansBoldOblique.ttf
p1080
sg20
g21
sbag1
(g8
g3
NtRp1081
(dp1082
g11
g28
sg13
S'Latin Modern Sans'
p1083
sg15
I400
sg16
g12
sg17
g12
sg18
V/usr/share/texmf/fonts/opentype/public/lm/lmsans12-oblique.otf
p1084
sg20
g21
sbag1
(g8
g3
NtRp1085
(dp1086
g11
g12
sg13
S'STIXNonUnicode'
p1087
sg15
I400
sg16
g12
sg17
g12
sg18
V/usr/share/fonts/opentype/stix/STIXNonUnicode-Regular.otf
p1088
sg20
g21
sbag1
(g8
g3
NtRp1089
(dp1090
g11
g12
sg13
S'Latin Modern Sans Demi Cond'
p1091
sg15
I600
sg16
g275
sg17
g12
sg18
V/usr/share/texmf/fonts/opentype/public/lm/lmsansdemicond10-regular.otf
p1092
sg20
g21
sbag1
(g8
g3
NtRp1093
(dp1094
g11
g12
sg13
S'Padauk Book'
p1095
sg15
I700
sg16
g12
sg17
g12
sg18
V/usr/share/fonts/truetype/padauk/Padauk-bookbold.ttf
p1096
sg20
g21
sbag1
(g8
g3
NtRp1097
(dp1098
g11
g12
sg13
S'Cabin'
p1099
sg15
I400
sg16
g12
sg17
g12
sg18
V/usr/share/fonts/opentype/cabin/Cabin-Regular.otf
p1100
sg20
g21
sbag1
(g8
g3
NtRp1101
(dp1102
g11
g12
sg13
S'FreeSans'
p1103
sg15
I400
sg16
g12
sg17
g12
sg18
V/usr/share/fonts/truetype/freefont/FreeSans.ttf
p1104
sg20
g21
sbag1
(g8
g3
NtRp1105
(dp1106
g11
g28
sg13
S'Kinnari'
p1107
sg15
I400
sg16
g12
sg17
g12
sg18
V/usr/share/fonts/truetype/tlwg/Kinnari-Oblique.ttf
p1108
sg20
g21
sbag1
(g8
g3
NtRp1109
(dp1110
g11
g41
sg13
S'TeX Gyre Adventor'
p1111
sg15
I700
sg16
g12
sg17
g12
sg18
V/usr/share/texmf/fonts/opentype/public/tex-gyre/texgyreadventor-bolditalic.otf
p1112
sg20
g21
sbag1
(g8
g3
NtRp1113
(dp1114
g11
g12
sg13
S'Umpush'
p1115
sg15
I200
sg16
g12
sg17
g12
sg18
V/usr/share/fonts/truetype/tlwg/Umpush-Light.ttf
p1116
sg20
g21
sbag1
(g8
g3
NtRp1117
(dp1118
g11
g41
sg13
S'Accanthis ADF Std No2'
p1119
sg15
I700
sg16
g12
sg17
g12
sg18
V/usr/share/fonts/truetype/adf/AccanthisADFStdNo2-BoldItalic.otf
p1120
sg20
g21
sbag1
(g8
g3
NtRp1121
(dp1122
g11
g41
sg13
S'TeX Gyre Schola'
p1123
sg15
I400
sg16
g12
sg17
g12
sg18
V/usr/share/texmf/fonts/opentype/public/tex-gyre/texgyreschola-italic.otf
p1124
sg20
g21
sbag1
(g8
g3
NtRp1125
(dp1126
g11
g12
sg13
S'UnBatang'
p1127
sg15
I700
sg16
g12
sg17
g12
sg18
V/usr/share/fonts/truetype/unfonts-core/UnBatangBold.ttf
p1128
sg20
g21
sbag1
(g8
g3
NtRp1129
(dp1130
g11
g28
sg13
S'Purisa'
p1131
sg15
I700
sg16
g12
sg17
g12
sg18
V/usr/share/fonts/truetype/tlwg/Purisa-BoldOblique.ttf
p1132
sg20
g21
sbag1
(g8
g3
NtRp1133
(dp1134
g11
g41
sg13
S'GFS Didot'
p1135
sg15
I700
sg16
g12
sg17
g12
sg18
V/usr/share/fonts/truetype/artemisia/GFSArtemisiaBoldIt.otf
p1136
sg20
g21
sbag1
(g8
g3
NtRp1137
(dp1138
g11
g12
sg13
S'KacstTitle'
p1139
sg15
I400
sg16
g12
sg17
g12
sg18
V/usr/share/fonts/truetype/kacst/KacstTitle.ttf
p1140
sg20
g21
sbag1
(g8
g3
NtRp1141
(dp1142
g11
g12
sg13
S'TeX Gyre Heros'
p1143
sg15
I400
sg16
g12
sg17
g12
sg18
V/usr/share/texmf/fonts/opentype/public/tex-gyre/texgyreheros-regular.otf
p1144
sg20
g21
sbag1
(g8
g3
NtRp1145
(dp1146
g11
g41
sg13
S'Georgia'
p1147
sg15
I700
sg16
g12
sg17
g12
sg18
V/usr/share/fonts/truetype/msttcorefonts/georgiaz.ttf
p1148
sg20
g21
sbag1
(g8
g3
NtRp1149
(dp1150
g11
g41
sg13
S'Gentium Basic'
p1151
sg15
I700
sg16
g12
sg17
g12
sg18
V/usr/share/fonts/truetype/gentium-basic/GenBasBI.ttf
p1152
sg20
g21
sbag1
(g8
g3
NtRp1153
(dp1154
g11
g41
sg13
S'Ubuntu'
p1155
sg15
I400
sg16
g12
sg17
g12
sg18
V/usr/share/fonts/truetype/ubuntu-font-family/Ubuntu-RI.ttf
p1156
sg20
g21
sbag1
(g8
g3
NtRp1157
(dp1158
g11
g12
sg13
S'DejaVu Sans'
p1159
sg15
I400
sg16
g12
sg17
g12
sg18
V/usr/share/fonts/truetype/dejavu/DejaVuSans.ttf
p1160
sg20
g21
sbag1
(g8
g3
NtRp1161
(dp1162
g11
g12
sg13
S'Linux Biolinum Keyboard O'
p1163
sg15
I400
sg16
g12
sg17
g12
sg18
V/usr/share/fonts/opentype/linux-libertine/LinBiolinum_K.otf
p1164
sg20
g21
sbag1
(g8
g3
NtRp1165
(dp1166
g11
g12
sg13
S'IPAMincho'
p1167
sg15
I400
sg16
g12
sg17
g12
sg18
V/usr/share/fonts/opentype/ipafont-mincho/ipam.ttf
p1168
sg20
g21
sbag1
(g8
g3
NtRp1169
(dp1170
g11
g28
sg13
S'FreeMono'
p1171
sg15
I400
sg16
g12
sg17
g12
sg18
V/usr/share/fonts/truetype/freefont/FreeMonoOblique.ttf
p1172
sg20
g21
sbag1
(g8
g3
NtRp1173
(dp1174
g11
g12
sg13
S'MathJax_Size1'
p1175
sg15
I400
sg16
g12
sg17
g12
sg18
V/usr/share/fonts/opentype/mathjax/MathJax_Size1-Regular.otf
p1176
sg20
g21
sbag1
(g8
g3
NtRp1177
(dp1178
g11
g41
sg13
S'STIXNonUnicode'
p1179
sg15
I700
sg16
g12
sg17
g12
sg18
V/usr/share/fonts/opentype/stix/STIXNonUnicode-BoldItalic.otf
p1180
sg20
g21
sbag1
(g8
g3
NtRp1181
(dp1182
g11
g12
sg13
S'Webdings'
p1183
sg15
I400
sg16
g12
sg17
g12
sg18
V/usr/share/fonts/truetype/msttcorefonts/webdings.ttf
p1184
sg20
g21
sbag1
(g8
g3
NtRp1185
(dp1186
g11
g41
sg13
S'Cabin'
p1187
sg15
I700
sg16
g12
sg17
g12
sg18
V/usr/share/fonts/opentype/cabin/Cabin-BoldItalic.otf
p1188
sg20
g21
sbag1
(g8
g3
NtRp1189
(dp1190
g11
g12
sg13
S'Gillius ADF'
p1191
sg15
I400
sg16
g12
sg17
g12
sg18
V/usr/share/fonts/truetype/adf/GilliusADF-Regular.otf
p1192
sg20
g21
sbag1
(g8
g3
NtRp1193
(dp1194
g11
g12
sg13
S'Liberation Sans Narrow'
p1195
sg15
I400
sg16
g275
sg17
g12
sg18
V/usr/share/fonts/truetype/liberation/LiberationSansNarrow-Regular.ttf
p1196
sg20
g21
sbag1
(g8
g3
NtRp1197
(dp1198
g11
g41
sg13
S'Trebuchet MS'
p1199
sg15
I400
sg16
g12
sg17
g12
sg18
V/usr/share/fonts/truetype/msttcorefonts/trebucit.ttf
p1200
sg20
g21
sbag1
(g8
g3
NtRp1201
(dp1202
g11
g12
sg13
S'STIXVariants'
p1203
sg15
I700
sg16
g12
sg17
g12
sg18
V/usr/share/fonts/opentype/stix/STIXVariants-Bold.otf
p1204
sg20
g21
sbag1
(g8
g3
NtRp1205
(dp1206
g11
g12
sg13
S'Ume P Gothic C4'
p1207
sg15
I400
sg16
g12
sg17
g12
sg18
V/usr/share/fonts/truetype/horai-umefont/ume-pgc4.ttf
p1208
sg20
g21
sbag1
(g8
g3
NtRp1209
(dp1210
g11
g28
sg13
S'Latin Modern Sans Quotation'
p1211
sg15
I700
sg16
g12
sg17
g12
sg18
V/usr/share/texmf/fonts/opentype/public/lm/lmsansquot8-oblique.otf
p1212
sg20
g21
sbag1
(g8
g3
NtRp1213
(dp1214
g11
g12
sg13
S'Comic Sans MS'
p1215
sg15
I400
sg16
g12
sg17
g12
sg18
V/usr/share/fonts/truetype/msttcorefonts/Comic_Sans_MS.ttf
p1216
sg20
g21
sbag1
(g8
g3
NtRp1217
(dp1218
g11
g28
sg13
S'Sawasdee'
p1219
sg15
I400
sg16
g12
sg17
g12
sg18
V/usr/share/fonts/truetype/tlwg/Sawasdee-Oblique.ttf
p1220
sg20
g21
sbag1
(g8
g3
NtRp1221
(dp1222
g11
g41
sg13
S'Latin Modern Roman'
p1223
sg15
I700
sg16
g12
sg17
g12
sg18
V/usr/share/texmf/fonts/opentype/public/lm/lmroman10-bolditalic.otf
p1224
sg20
g21
sbag1
(g8
g3
NtRp1225
(dp1226
g11
g12
sg13
S'STIXIntegralsD'
p1227
sg15
I700
sg16
g12
sg17
g12
sg18
V/usr/share/fonts/opentype/stix/STIXIntegralsD-Bold.otf
p1228
sg20
g21
sbag1
(g8
g3
NtRp1229
(dp1230
g11
g12
sg13
S'Khmer OS'
p1231
sg15
I400
sg16
g12
sg17
g12
sg18
V/usr/share/fonts/truetype/ttf-khmeros-core/KhmerOS.ttf
p1232
sg20
g21
sbag1
(g8
g3
NtRp1233
(dp1234
g11
g12
sg13
S'Padauk'
p1235
sg15
I400
sg16
g12
sg17
g12
sg18
V/usr/share/fonts/truetype/padauk/Padauk.ttf
p1236
sg20
g21
sbag1
(g8
g3
NtRp1237
(dp1238
g11
g41
sg13
S'TeX Gyre Adventor'
p1239
sg15
I400
sg16
g12
sg17
g12
sg18
V/usr/share/texmf/fonts/opentype/public/tex-gyre/texgyreadventor-italic.otf
p1240
sg20
g21
sbag1
(g8
g3
NtRp1241
(dp1242
g11
g41
sg13
S'MathJax_Math'
p1243
sg15
I400
sg16
g12
sg17
g12
sg18
V/usr/share/fonts/opentype/mathjax/MathJax_Math-Italic.otf
p1244
sg20
g21
sbag1
(g8
g3
NtRp1245
(dp1246
g11
g12
sg13
S'GFS BodoniClassic'
p1247
sg15
I400
sg16
g12
sg17
g12
sg18
V/usr/share/fonts/truetype/bodoni-classic/GFSBodoniClassic.otf
p1248
sg20
g21
sbag1
(g8
g3
NtRp1249
(dp1250
g11
g28
sg13
S'TlwgTypewriter'
p1251
sg15
I400
sg16
g12
sg17
g12
sg18
V/usr/share/fonts/truetype/tlwg/TlwgTypewriter-Oblique.ttf
p1252
sg20
g21
sbag1
(g8
g3
NtRp1253
(dp1254
g11
g41
sg13
S'Gillius ADF Cd'
p1255
sg15
I400
sg16
g12
sg17
g12
sg18
V/usr/share/fonts/truetype/adf/GilliusADFCd-Italic.otf
p1256
sg20
g21
sbag1
(g8
g3
NtRp1257
(dp1258
g11
g12
sg13
S'Waree'
p1259
sg15
I400
sg16
g12
sg17
g12
sg18
V/usr/share/fonts/truetype/tlwg/Waree.ttf
p1260
sg20
g21
sbag1
(g8
g3
NtRp1261
(dp1262
g11
g12
sg13
S'FreeMono'
p1263
sg15
I400
sg16
g12
sg17
g12
sg18
V/usr/share/fonts/truetype/freefont/FreeMono.ttf
p1264
sg20
g21
sbag1
(g8
g3
NtRp1265
(dp1266
g11
g12
sg13
S'Lato'
p1267
sg15
I400
sg16
g12
sg17
g12
sg18
V/usr/share/fonts/truetype/lato/Lato-Reg.ttf
p1268
sg20
g21
sbag1
(g8
g3
NtRp1269
(dp1270
g11
g12
sg13
S'Latin Modern Mono'
p1271
sg15
I400
sg16
g12
sg17
g12
sg18
V/usr/share/texmf/fonts/opentype/public/lm/lmmono9-regular.otf
p1272
sg20
g21
sbag1
(g8
g3
NtRp1273
(dp1274
g11
g41
sg13
S'Gillius ADF No2 Cd'
p1275
sg15
I700
sg16
g12
sg17
g12
sg18
V/usr/share/fonts/truetype/adf/GilliusADFNo2Cd-BoldItalic.otf
p1276
sg20
g21
sbag1
(g8
g3
NtRp1277
(dp1278
g11
g12
sg13
S'STIXIntegralsUpSm'
p1279
sg15
I700
sg16
g12
sg17
g12
sg18
V/usr/share/fonts/opentype/stix/STIXIntegralsUpSm-Bold.otf
p1280
sg20
g21
sbag1
(g8
g3
NtRp1281
(dp1282
g11
g12
sg13
S'Latin Modern Roman'
p1283
sg15
I700
sg16
g12
sg17
g12
sg18
V/usr/share/texmf/fonts/opentype/public/lm/lmroman10-bold.otf
p1284
sg20
g21
sbag1
(g8
g3
NtRp1285
(dp1286
g11
g12
sg13
S'Linux Libertine Initials O'
p1287
sg15
I400
sg16
g12
sg17
g12
sg18
V/usr/share/fonts/opentype/linux-libertine/LinLibertine_I.otf
p1288
sg20
g21
sbag1
(g8
g3
NtRp1289
(dp1290
g11
g12
sg13
S'UnPilgi'
p1291
sg15
I700
sg16
g12
sg17
g12
sg18
V/usr/share/fonts/truetype/unfonts-core/UnPilgiBold.ttf
p1292
sg20
g21
sbag1
(g8
g3
NtRp1293
(dp1294
g11
g12
sg13
S'Liberation Sans'
p1295
sg15
I400
sg16
g12
sg17
g12
sg18
V/usr/share/fonts/truetype/ttf-liberation/LiberationSans-Regular.ttf
p1296
sg20
g21
sbag1
(g8
g3
NtRp1297
(dp1298
g11
g41
sg13
S'Gillius ADF No2'
p1299
sg15
I700
sg16
g12
sg17
g12
sg18
V/usr/share/fonts/truetype/adf/GilliusADFNo2-BoldItalic.otf
p1300
sg20
g21
sbag1
(g8
g3
NtRp1301
(dp1302
g11
g12
sg13
S'Latin Modern Roman'
p1303
sg15
I400
sg16
g12
sg17
g12
sg18
V/usr/share/texmf/fonts/opentype/public/lm/lmroman7-regular.otf
p1304
sg20
g21
sbag1
(g8
g3
NtRp1305
(dp1306
g11
g12
sg13
S'Umpush'
p1307
sg15
I400
sg16
g12
sg17
g12
sg18
V/usr/share/fonts/truetype/tlwg/Umpush.ttf
p1308
sg20
g21
sbag1
(g8
g3
NtRp1309
(dp1310
g11
g41
sg13
S'TeX Gyre Heros'
p1311
sg15
I700
sg16
g12
sg17
g12
sg18
V/usr/share/texmf/fonts/opentype/public/tex-gyre/texgyreheros-bolditalic.otf
p1312
sg20
g21
sbag1
(g8
g3
NtRp1313
(dp1314
g11
g12
sg13
S'Times New Roman'
p1315
sg15
I500
sg16
g12
sg17
g12
sg18
V/usr/share/fonts/truetype/msttcorefonts/Times_New_Roman.ttf
p1316
sg20
g21
sbag1
(g8
g3
NtRp1317
(dp1318
g11
g41
sg13
S'Gillius ADF No2'
p1319
sg15
I400
sg16
g12
sg17
g12
sg18
V/usr/share/fonts/truetype/adf/GilliusADFNo2-Italic.otf
p1320
sg20
g21
sbag1
(g8
g3
NtRp1321
(dp1322
g11
g12
sg13
S'Ume UI Gothic'
p1323
sg15
I400
sg16
g12
sg17
g12
sg18
V/usr/share/fonts/truetype/horai-umefont/ume-ugo4.ttf
p1324
sg20
g21
sbag1
(g8
g3
NtRp1325
(dp1326
g11
g41
sg13
S'TeX Gyre Cursor'
p1327
sg15
I700
sg16
g12
sg17
g12
sg18
V/usr/share/texmf/fonts/opentype/public/tex-gyre/texgyrecursor-bolditalic.otf
p1328
sg20
g21
sbag1
(g8
g3
NtRp1329
(dp1330
g11
g41
sg13
S'Lobster Two'
p1331
sg15
I400
sg16
g12
sg17
g12
sg18
V/usr/share/fonts/opentype/lobstertwo/LobsterTwo-Italic.otf
p1332
sg20
g21
sbag1
(g8
g3
NtRp1333
(dp1334
g11
g12
sg13
S'Accanthis ADF Std No3'
p1335
sg15
I400
sg16
g12
sg17
g12
sg18
V/usr/share/fonts/truetype/adf/AccanthisADFStdNo3-Regular.otf
p1336
sg20
g21
sbag1
(g8
g3
NtRp1337
(dp1338
g11
g12
sg13
S'DejaVu Sans Mono'
p1339
sg15
I400
sg16
g12
sg17
g12
sg18
V/usr/share/fonts/truetype/ttf-dejavu/DejaVuSansMono.ttf
p1340
sg20
g21
sbag1
(g8
g3
NtRp1341
(dp1342
g11
g12
sg13
S'Lohit Punjabi'
p1343
sg15
I400
sg16
g12
sg17
g12
sg18
V/usr/share/fonts/truetype/ttf-punjabi-fonts/lohit_pa.ttf
p1344
sg20
g21
sbag1
(g8
g3
NtRp1345
(dp1346
g11
g41
sg13
S'Accanthis ADF Std'
p1347
sg15
I400
sg16
g12
sg17
g12
sg18
V/usr/share/fonts/truetype/adf/AccanthisADFStd-Italic.otf
p1348
sg20
g21
sbag1
(g8
g3
NtRp1349
(dp1350
g11
g12
sg13
S'Liberation Mono'
p1351
sg15
I700
sg16
g12
sg17
g12
sg18
V/usr/share/fonts/truetype/liberation/LiberationMono-Bold.ttf
p1352
sg20
g21
sbag1
(g8
g3
NtRp1353
(dp1354
g11
g12
sg13
S'Georgia'
p1355
sg15
I700
sg16
g12
sg17
g12
sg18
V/usr/share/fonts/truetype/msttcorefonts/Georgia_Bold.ttf
p1356
sg20
g21
sbag1
(g8
g3
NtRp1357
(dp1358
g11
g12
sg13
S'DejaVu Sans'
p1359
sg15
I700
sg16
g12
sg17
g12
sg18
V/usr/share/fonts/truetype/dejavu/DejaVuSans-Bold.ttf
p1360
sg20
g21
sbag1
(g8
g3
NtRp1361
(dp1362
g11
g41
sg13
S'DejaVu Serif'
p1363
sg15
I700
sg16
g12
sg17
g12
sg18
V/usr/share/fonts/truetype/dejavu/DejaVuSerif-BoldItalic.ttf
p1364
sg20
g21
sbag1
(g8
g3
NtRp1365
(dp1366
g11
g12
sg13
S'GFS Solomos'
p1367
sg15
I400
sg16
g12
sg17
g12
sg18
V/usr/share/fonts/truetype/solomos/GFSSolomos.otf
p1368
sg20
g21
sbag1
(g8
g3
NtRp1369
(dp1370
g11
g12
sg13
S'LKLUG'
p1371
sg15
I400
sg16
g12
sg17
g12
sg18
V/usr/share/fonts/truetype/sinhala/lklug.ttf
p1372
sg20
g21
sbag1
(g8
g3
NtRp1373
(dp1374
g11
g12
sg13
S'Lohit Devanagari'
p1375
sg15
I400
sg16
g12
sg17
g12
sg18
V/usr/share/fonts/truetype/ttf-indic-fonts-core/lohit_hi.ttf
p1376
sg20
g21
sbag1
(g8
g3
NtRp1377
(dp1378
g11
g12
sg13
S'Courier New'
p1379
sg15
I700
sg16
g12
sg17
g12
sg18
V/usr/share/fonts/truetype/msttcorefonts/Courier_New_Bold.ttf
p1380
sg20
g21
sbag1
(g8
g3
NtRp1381
(dp1382
g11
g41
sg13
S'Lato'
p1383
sg15
I200
sg16
g12
sg17
g12
sg18
V/usr/share/fonts/truetype/lato/Lato-LigIta.ttf
p1384
sg20
g21
sbag1
(g8
g3
NtRp1385
(dp1386
g11
g12
sg13
S'FontAwesome'
p1387
sg15
I400
sg16
g12
sg17
g12
sg18
V/usr/share/fonts/opentype/font-awesome/FontAwesome.otf
p1388
sg20
g21
sbag1
(g8
g3
NtRp1389
(dp1390
g11
g12
sg13
S'Ubuntu'
p1391
sg15
I400
sg16
g12
sg17
g12
sg18
V/usr/share/fonts/truetype/ubuntu-font-family/Ubuntu-R.ttf
p1392
sg20
g21
sbag1
(g8
g3
NtRp1393
(dp1394
g11
g28
sg13
S'DejaVu Sans'
p1395
sg15
I700
sg16
g12
sg17
g12
sg18
V/usr/share/fonts/truetype/dejavu/DejaVuSans-BoldOblique.ttf
p1396
sg20
g21
sbag1
(g8
g3
NtRp1397
(dp1398
g11
g28
sg13
S'TlwgMono'
p1399
sg15
I400
sg16
g12
sg17
g12
sg18
V/usr/share/fonts/truetype/tlwg/TlwgMono-Oblique.ttf
p1400
sg20
g21
sbag1
(g8
g3
NtRp1401
(dp1402
g11
g12
sg13
S'MathJax_Main'
p1403
sg15
I400
sg16
g12
sg17
g12
sg18
V/usr/share/fonts/opentype/mathjax/MathJax_Main-Regular.otf
p1404
sg20
g21
sbag1
(g8
g3
NtRp1405
(dp1406
g11
g12
sg13
S'Georgia'
p1407
sg15
I400
sg16
g12
sg17
g12
sg18
V/usr/share/fonts/truetype/msttcorefonts/Georgia.ttf
p1408
sg20
g21
sbag1
(g8
g3
NtRp1409
(dp1410
g11
g41
sg13
S'Cabin'
p1411
sg15
I400
sg16
g12
sg17
g12
sg18
V/usr/share/fonts/opentype/cabin/Cabin-Italic.otf
p1412
sg20
g21
sbag1
(g8
g3
NtRp1413
(dp1414
g11
g12
sg13
S'msbm10'
p1415
sg15
I400
sg16
g12
sg17
g12
sg18
V/usr/share/fonts/truetype/lyx/msbm10.ttf
p1416
sg20
g21
sbag1
(g8
g3
NtRp1417
(dp1418
g11
g41
sg13
S'DejaVu Serif'
p1419
sg15
I400
sg16
g12
sg17
g12
sg18
V/usr/share/fonts/truetype/dejavu/DejaVuSerif-Italic.ttf
p1420
sg20
g21
sbag1
(g8
g3
NtRp1421
(dp1422
g11
g41
sg13
S'DejaVu Serif'
p1423
sg15
I700
sg16
g275
sg17
g12
sg18
V/usr/share/fonts/truetype/dejavu/DejaVuSerifCondensed-BoldItalic.ttf
p1424
sg20
g21
sbag1
(g8
g3
NtRp1425
(dp1426
g11
g12
sg13
S'Latin Modern Roman Slanted'
p1427
sg15
I400
sg16
g12
sg17
g12
sg18
V/usr/share/texmf/fonts/opentype/public/lm/lmromanslant12-regular.otf
p1428
sg20
g21
sbag1
(g8
g3
NtRp1429
(dp1430
g11
g12
sg13
S'Verdana'
p1431
sg15
I400
sg16
g12
sg17
g12
sg18
V/usr/share/fonts/truetype/msttcorefonts/Verdana.ttf
p1432
sg20
g21
sbag1
(g8
g3
NtRp1433
(dp1434
g11
g12
sg13
S'NanumMyeongjo'
p1435
sg15
I700
sg16
g12
sg17
g12
sg18
V/usr/share/fonts/truetype/nanum/NanumMyeongjoBold.ttf
p1436
sg20
g21
sbag1
(g8
g3
NtRp1437
(dp1438
g11
g12
sg13
S'Phetsarath OT'
p1439
sg15
I400
sg16
g12
sg17
g12
sg18
V/usr/share/fonts/truetype/lao/Phetsarath_OT.ttf
p1440
sg20
g21
sbag1
(g8
g3
NtRp1441
(dp1442
g11
g12
sg13
S'STIXSizeTwoSym'
p1443
sg15
I400
sg16
g12
sg17
g12
sg18
V/usr/share/fonts/opentype/stix/STIXSizeTwoSym-Regular.otf
p1444
sg20
g21
sbag1
(g8
g3
NtRp1445
(dp1446
g11
g12
sg13
S'Courier New'
p1447
sg15
I400
sg16
g12
sg17
g12
sg18
V/usr/share/fonts/truetype/msttcorefonts/cour.ttf
p1448
sg20
g21
sbag1
(g8
g3
NtRp1449
(dp1450
g11
g12
sg13
S'TG Pagella Math'
p1451
sg15
I400
sg16
g12
sg17
g12
sg18
V/usr/share/texmf/fonts/opentype/public/tex-gyre-math/texgyrepagella-math.otf
p1452
sg20
g21
sbag1
(g8
g3
NtRp1453
(dp1454
g11
g12
sg13
S'TakaoPGothic'
p1455
sg15
I400
sg16
g12
sg17
g12
sg18
V/usr/share/fonts/truetype/takao-gothic/TakaoPGothic.ttf
p1456
sg20
g21
sbag1
(g8
g3
NtRp1457
(dp1458
g11
g12
sg13
S'Droid Sans'
p1459
sg15
I400
sg16
g12
sg17
g12
sg18
V/usr/share/fonts/truetype/droid/DroidSans.ttf
p1460
sg20
g21
sbag1
(g8
g3
NtRp1461
(dp1462
g11
g12
sg13
S'Ume P Mincho S3'
p1463
sg15
I400
sg16
g12
sg17
g12
sg18
V/usr/share/fonts/truetype/horai-umefont/ume-pms3.ttf
p1464
sg20
g21
sbag1
(g8
g3
NtRp1465
(dp1466
g11
g41
sg13
S'TeX Gyre Heros Cn'
p1467
sg15
I400
sg16
g12
sg17
g12
sg18
V/usr/share/texmf/fonts/opentype/public/tex-gyre/texgyreheroscn-italic.otf
p1468
sg20
g21
sbag1
(g8
g3
NtRp1469
(dp1470
g11
g41
sg13
S'GFS Neohellenic'
p1471
sg15
I400
sg16
g12
sg17
g12
sg18
V/usr/share/fonts/truetype/neohellenic/GFSNeohellenicIt.otf
p1472
sg20
g21
sbag1
(g8
g3
NtRp1473
(dp1474
g11
g12
sg13
S'STIXSizeFiveSym'
p1475
sg15
I400
sg16
g12
sg17
g12
sg18
V/usr/share/fonts/opentype/stix/STIXSizeFiveSym-Regular.otf
p1476
sg20
g21
sbag1
(g8
g3
NtRp1477
(dp1478
g11
g12
sg13
S'Ume UI Gothic O5'
p1479
sg15
I400
sg16
g12
sg17
g12
sg18
V/usr/share/fonts/truetype/horai-umefont/ume-ugo5.ttf
p1480
sg20
g21
sbag1
(g8
g3
NtRp1481
(dp1482
g11
g12
sg13
S'Kedage'
p1483
sg15
I700
sg16
g12
sg17
g12
sg18
V/usr/share/fonts/truetype/ttf-indic-fonts-core/Kedage-b.ttf
p1484
sg20
g21
sbag1
(g8
g3
NtRp1485
(dp1486
g11
g12
sg13
S'DejaVu Serif'
p1487
sg15
I700
sg16
g12
sg17
g12
sg18
V/usr/share/fonts/truetype/ttf-dejavu/DejaVuSerif-Bold.ttf
p1488
sg20
g21
sbag1
(g8
g3
NtRp1489
(dp1490
g11
g12
sg13
S'Courier New'
p1491
sg15
I400
sg16
g12
sg17
g12
sg18
V/usr/share/fonts/truetype/msttcorefonts/Courier_New.ttf
p1492
sg20
g21
sbag1
(g8
g3
NtRp1493
(dp1494
g11
g12
sg13
S'Latin Modern Mono'
p1495
sg15
I400
sg16
g12
sg17
g12
sg18
V/usr/share/texmf/fonts/opentype/public/lm/lmmono12-regular.otf
p1496
sg20
g21
sbag1
(g8
g3
NtRp1497
(dp1498
g11
g12
sg13
S'MathJax_AMS'
p1499
sg15
I400
sg16
g12
sg17
g12
sg18
V/usr/share/fonts/opentype/mathjax/MathJax_AMS-Regular.otf
p1500
sg20
g21
sbag1
(g8
g3
NtRp1501
(dp1502
g11
g41
sg13
S'Norasi'
p1503
sg15
I700
sg16
g12
sg17
g12
sg18
V/usr/share/fonts/truetype/tlwg/Norasi-BoldItalic.ttf
p1504
sg20
g21
sbag1
(g8
g3
NtRp1505
(dp1506
g11
g12
sg13
S'Umpush'
p1507
sg15
I700
sg16
g12
sg17
g12
sg18
V/usr/share/fonts/truetype/tlwg/Umpush-Bold.ttf
p1508
sg20
g21
sbag1
(g8
g3
NtRp1509
(dp1510
g11
g41
sg13
S'Liberation Sans'
p1511
sg15
I700
sg16
g12
sg17
g12
sg18
V/usr/share/fonts/truetype/liberation/LiberationSans-BoldItalic.ttf
p1512
sg20
g21
sbag1
(g8
g3
NtRp1513
(dp1514
g11
g12
sg13
S'TeX Gyre Adventor'
p1515
sg15
I700
sg16
g12
sg17
g12
sg18
V/usr/share/texmf/fonts/opentype/public/tex-gyre/texgyreadventor-bold.otf
p1516
sg20
g21
sbag1
(g8
g3
NtRp1517
(dp1518
g11
g12
sg13
S'Lato'
p1519
sg15
I900
sg16
g12
sg17
g12
sg18
V/usr/share/fonts/truetype/lato/Lato-Bla.ttf
p1520
sg20
g21
sbag1
(g8
g3
NtRp1521
(dp1522
g11
g12
sg13
S'TeX Gyre Adventor'
p1523
sg15
I400
sg16
g12
sg17
g12
sg18
V/usr/share/texmf/fonts/opentype/public/tex-gyre/texgyreadventor-regular.otf
p1524
sg20
g21
sbag1
(g8
g3
NtRp1525
(dp1526
g11
g12
sg13
S'Latin Modern Mono Light Cond'
p1527
sg15
I400
sg16
g275
sg17
g12
sg18
V/usr/share/texmf/fonts/opentype/public/lm/lmmonoltcond10-regular.otf
p1528
sg20
g21
sbag1
(g8
g3
NtRp1529
(dp1530
g11
g12
sg13
S'Latin Modern Roman Demi'
p1531
sg15
I600
sg16
g12
sg17
g12
sg18
V/usr/share/texmf/fonts/opentype/public/lm/lmromandemi10-regular.otf
p1532
sg20
g21
sbag1
(g8
g3
NtRp1533
(dp1534
g11
g12
sg13
S'Lobster Two'
p1535
sg15
I700
sg16
g12
sg17
g12
sg18
V/usr/share/fonts/opentype/lobstertwo/LobsterTwo-Bold.otf
p1536
sg20
g21
sbag1
(g8
g3
NtRp1537
(dp1538
g11
g12
sg13
S'GFS Theokritos'
p1539
sg15
I400
sg16
g12
sg17
g12
sg18
V/usr/share/fonts/truetype/theokritos/GFSTheokritos.otf
p1540
sg20
g21
sbag1
(g8
g3
NtRp1541
(dp1542
g11
g12
sg13
S'MathJax_Caligraphic'
p1543
sg15
I400
sg16
g12
sg17
g12
sg18
V/usr/share/fonts/opentype/mathjax/MathJax_Caligraphic-Regular.otf
p1544
sg20
g21
sbag1
(g8
g3
NtRp1545
(dp1546
g11
g12
sg13
S'Ubuntu'
p1547
sg15
I200
sg16
g12
sg17
g12
sg18
V/usr/share/fonts/truetype/ubuntu-font-family/Ubuntu-L.ttf
p1548
sg20
g21
sbag1
(g8
g3
NtRp1549
(dp1550
g11
g12
sg13
S'Latin Modern Roman'
p1551
sg15
I400
sg16
g12
sg17
g12
sg18
V/usr/share/texmf/fonts/opentype/public/lm/lmroman9-regular.otf
p1552
sg20
g21
sbag1
(g8
g3
NtRp1553
(dp1554
g11
g28
sg13
S'Latin Modern Sans Demi Cond'
p1555
sg15
I600
sg16
g275
sg17
g12
sg18
V/usr/share/texmf/fonts/opentype/public/lm/lmsansdemicond10-oblique.otf
p1556
sg20
g21
sbag1
(g8
g3
NtRp1557
(dp1558
g11
g12
sg13
S'Linux Libertine O'
p1559
sg15
I700
sg16
g12
sg17
g12
sg18
V/usr/share/fonts/opentype/linux-libertine/LinLibertine_RB.otf
p1560
sg20
g21
sbag1
(g8
g3
NtRp1561
(dp1562
g11
g12
sg13
S'DejaVu Sans'
p1563
sg15
I200
sg16
g12
sg17
g12
sg18
V/usr/share/fonts/truetype/dejavu/DejaVuSans-ExtraLight.ttf
p1564
sg20
g21
sbag1
(g8
g3
NtRp1565
(dp1566
g11
g12
sg13
S'KacstFarsi'
p1567
sg15
I400
sg16
g12
sg17
g12
sg18
V/usr/share/fonts/truetype/kacst/KacstFarsi.ttf
p1568
sg20
g21
sbag1
(g8
g3
NtRp1569
(dp1570
g11
g12
sg13
S'STIXSizeFourSym'
p1571
sg15
I700
sg16
g12
sg17
g12
sg18
V/usr/share/fonts/opentype/stix/STIXSizeFourSym-Bold.otf
p1572
sg20
g21
sbag1
(g8
g3
NtRp1573
(dp1574
g11
g12
sg13
S'Andale Mono'
p1575
sg15
I400
sg16
g12
sg17
g12
sg18
V/usr/share/fonts/truetype/msttcorefonts/Andale_Mono.ttf
p1576
sg20
g21
sbag1
(g8
g3
NtRp1577
(dp1578
g11
g41
sg13
S'Times New Roman'
p1579
sg15
I500
sg16
g12
sg17
g12
sg18
V/usr/share/fonts/truetype/msttcorefonts/Times_New_Roman_Italic.ttf
p1580
sg20
g21
sbag1
(g8
g3
NtRp1581
(dp1582
g11
g12
sg13
S'Droid Sans Ethiopic'
p1583
sg15
I400
sg16
g12
sg17
g12
sg18
V/usr/share/fonts/truetype/droid/DroidSansEthiopic-Regular.ttf
p1584
sg20
g21
sbag1
(g8
g3
NtRp1585
(dp1586
g11
g12
sg13
S'TeX Gyre Cursor'
p1587
sg15
I700
sg16
g12
sg17
g12
sg18
V/usr/share/texmf/fonts/opentype/public/tex-gyre/texgyrecursor-bold.otf
p1588
sg20
g21
sbag1
(g8
g3
NtRp1589
(dp1590
g11
g28
sg13
S'Norasi'
p1591
sg15
I700
sg16
g12
sg17
g12
sg18
V/usr/share/fonts/truetype/tlwg/Norasi-BoldOblique.ttf
p1592
sg20
g21
sbag1
(g8
g3
NtRp1593
(dp1594
g11
g41
sg13
S'Courier New'
p1595
sg15
I400
sg16
g12
sg17
g12
sg18
V/usr/share/fonts/truetype/msttcorefonts/Courier_New_Italic.ttf
p1596
sg20
g21
sbag1
(g8
g3
NtRp1597
(dp1598
g11
g28
sg13
S'Latin Modern Mono Light Cond'
p1599
sg15
I200
sg16
g275
sg17
g12
sg18
V/usr/share/texmf/fonts/opentype/public/lm/lmmonoltcond10-oblique.otf
p1600
sg20
g21
sbag1
(g8
g3
NtRp1601
(dp1602
g11
g28
sg13
S'Loma'
p1603
sg15
I700
sg16
g12
sg17
g12
sg18
V/usr/share/fonts/truetype/tlwg/Loma-BoldOblique.ttf
p1604
sg20
g21
sbag1
(g8
g3
NtRp1605
(dp1606
g11
g12
sg13
S'TlwgTypewriter'
p1607
sg15
I400
sg16
g12
sg17
g12
sg18
V/usr/share/fonts/truetype/tlwg/TlwgTypewriter.ttf
p1608
sg20
g21
sbag1
(g8
g3
NtRp1609
(dp1610
g11
g12
sg13
S'Accanthis ADF Std No2'
p1611
sg15
I400
sg16
g12
sg17
g12
sg18
V/usr/share/fonts/truetype/adf/AccanthisADFStdNo2-Regular.otf
p1612
sg20
g21
sbag1
(g8
g3
NtRp1613
(dp1614
g11
g12
sg13
S'MathJax_Fraktur'
p1615
sg15
I400
sg16
g12
sg17
g12
sg18
V/usr/share/fonts/opentype/mathjax/MathJax_Fraktur-Regular.otf
p1616
sg20
g21
sbag1
(g8
g3
NtRp1617
(dp1618
g11
g12
sg13
S'Latin Modern Roman'
p1619
sg15
I700
sg16
g12
sg17
g12
sg18
V/usr/share/texmf/fonts/opentype/public/lm/lmroman7-bold.otf
p1620
sg20
g21
sbag1
(g8
g3
NtRp1621
(dp1622
g11
g12
sg13
S'Latin Modern Sans Quotation'
p1623
sg15
I700
sg16
g12
sg17
g12
sg18
V/usr/share/texmf/fonts/opentype/public/lm/lmsansquot8-bold.otf
p1624
sg20
g21
sbag1
(g8
g3
NtRp1625
(dp1626
g11
g12
sg13
S'TeX Gyre Termes'
p1627
sg15
I700
sg16
g12
sg17
g12
sg18
V/usr/share/texmf/fonts/opentype/public/tex-gyre/texgyretermes-bold.otf
p1628
sg20
g21
sbag1
(g8
g3
NtRp1629
(dp1630
g11
g12
sg13
S'MathJax_SansSerif'
p1631
sg15
I700
sg16
g12
sg17
g12
sg18
V/usr/share/fonts/opentype/mathjax/MathJax_SansSerif-Bold.otf
p1632
sg20
g21
sbag1
(g8
g3
NtRp1633
(dp1634
g11
g12
sg13
S'gargi'
p1635
sg15
I400
sg16
g12
sg17
g12
sg18
V/usr/share/fonts/truetype/ttf-indic-fonts-core/gargi.ttf
p1636
sg20
g21
sbag1
(g8
g3
NtRp1637
(dp1638
g11
g12
sg13
S'Latin Modern Roman'
p1639
sg15
I700
sg16
g12
sg17
g12
sg18
V/usr/share/texmf/fonts/opentype/public/lm/lmroman9-bold.otf
p1640
sg20
g21
sbag1
(g8
g3
NtRp1641
(dp1642
g11
g28
sg13
S'Latin Modern Mono Prop Light'
p1643
sg15
I700
sg16
g12
sg17
g12
sg18
V/usr/share/texmf/fonts/opentype/public/lm/lmmonoproplt10-boldoblique.otf
p1644
sg20
g21
sbag1
(g8
g3
NtRp1645
(dp1646
g11
g12
sg13
S'IPAPGothic'
p1647
sg15
I400
sg16
g12
sg17
g12
sg18
V/usr/share/fonts/opentype/ipafont-gothic/ipagp.ttf
p1648
sg20
g21
sbag1
(g8
g3
NtRp1649
(dp1650
g11
g41
sg13
S'GFS Artemisia'
p1651
sg15
I400
sg16
g12
sg17
g12
sg18
V/usr/share/fonts/truetype/artemisia/GFSArtemisiaIt.otf
p1652
sg20
g21
sbag1
(g8
g3
NtRp1653
(dp1654
g11
g12
sg13
S'MathJax_Fraktur'
p1655
sg15
I700
sg16
g12
sg17
g12
sg18
V/usr/share/fonts/opentype/mathjax/MathJax_Fraktur-Bold.otf
p1656
sg20
g21
sbag1
(g8
g3
NtRp1657
(dp1658
g11
g12
sg13
S'Arial Black'
p1659
sg15
I900
sg16
g12
sg17
g12
sg18
V/usr/share/fonts/truetype/msttcorefonts/Arial_Black.ttf
p1660
sg20
g21
sbag1
(g8
g3
NtRp1661
(dp1662
g11
g12
sg13
S'GFS Didot'
p1663
sg15
I700
sg16
g12
sg17
g12
sg18
V/usr/share/fonts/truetype/didot/GFSDidotBold.otf
p1664
sg20
g21
sbag1
(g8
g3
NtRp1665
(dp1666
g11
g12
sg13
S'Webdings'
p1667
sg15
I400
sg16
g12
sg17
g12
sg18
V/usr/share/fonts/truetype/msttcorefonts/Webdings.ttf
p1668
sg20
g21
sbag1
(g8
g3
NtRp1669
(dp1670
g11
g28
sg13
S'Latin Modern Sans'
p1671
sg15
I400
sg16
g12
sg17
g12
sg18
V/usr/share/texmf/fonts/opentype/public/lm/lmsans8-oblique.otf
p1672
sg20
g21
sbag1
(g8
g3
NtRp1673
(dp1674
g11
g12
sg13
S'UnDotum'
p1675
sg15
I700
sg16
g12
sg17
g12
sg18
V/usr/share/fonts/truetype/unfonts-core/UnDotumBold.ttf
p1676
sg20
g21
sbag1
(g8
g3
NtRp1677
(dp1678
g11
g12
sg13
S'Ume P Mincho'
p1679
sg15
I400
sg16
g12
sg17
g12
sg18
V/usr/share/fonts/truetype/horai-umefont/ume-pmo3.ttf
p1680
sg20
g21
sbag1
(g8
g3
NtRp1681
(dp1682
g11
g41
sg13
S'Lato'
p1683
sg15
I900
sg16
g12
sg17
g12
sg18
V/usr/share/fonts/truetype/lato/Lato-BlaIta.ttf
p1684
sg20
g21
sbag1
(g8
g3
NtRp1685
(dp1686
g11
g12
sg13
S'Asana Math'
p1687
sg15
I400
sg16
g12
sg17
g12
sg18
V/usr/share/fonts/truetype/asana-math/Asana-Math.otf
p1688
sg20
g21
sbag1
(g8
g3
NtRp1689
(dp1690
g11
g41
sg13
S'Accanthis ADF Std No3'
p1691
sg15
I700
sg16
g12
sg17
g12
sg18
V/usr/share/fonts/truetype/adf/AccanthisADFStdNo3-BoldItalic.otf
p1692
sg20
g21
sbag1
(g8
g3
NtRp1693
(dp1694
g11
g41
sg13
S'Gillius ADF Cd'
p1695
sg15
I700
sg16
g12
sg17
g12
sg18
V/usr/share/fonts/truetype/adf/GilliusADFCd-BoldItalic.otf
p1696
sg20
g21
sbag1
(g8
g3
NtRp1697
(dp1698
g11
g12
sg13
S'TeX Gyre Schola'
p1699
sg15
I700
sg16
g12
sg17
g12
sg18
V/usr/share/texmf/fonts/opentype/public/tex-gyre/texgyreschola-bold.otf
p1700
sg20
g21
sbag1
(g8
g3
NtRp1701
(dp1702
g11
g12
sg13
S'MathJax_Size2'
p1703
sg15
I400
sg16
g12
sg17
g12
sg18
V/usr/share/fonts/opentype/mathjax/MathJax_Size2-Regular.otf
p1704
sg20
g21
sbag1
(g8
g3
NtRp1705
(dp1706
g11
g41
sg13
S'Arial'
p1707
sg15
I400
sg16
g12
sg17
g12
sg18
V/usr/share/fonts/truetype/msttcorefonts/ariali.ttf
p1708
sg20
g21
sbag1
(g8
g3
NtRp1709
(dp1710
g11
g12
sg13
S'MathJax_Size3'
p1711
sg15
I400
sg16
g12
sg17
g12
sg18
V/usr/share/fonts/opentype/mathjax/MathJax_Size3-Regular.otf
p1712
sg20
g21
sbag1
(g8
g3
NtRp1713
(dp1714
g11
g12
sg13
S'GFS Gazis'
p1715
sg15
I400
sg16
g12
sg17
g12
sg18
V/usr/share/fonts/truetype/gazis/GFSGazis.otf
p1716
sg20
g21
sbag1
(g8
g3
NtRp1717
(dp1718
g11
g12
sg13
S'Amiri Quran'
p1719
sg15
I400
sg16
g12
sg17
g12
sg18
V/usr/share/fonts/opentype/fonts-hosny-amiri/amiri-quran.ttf
p1720
sg20
g21
sbag1
(g8
g3
NtRp1721
(dp1722
g11
g41
sg13
S'DejaVu Serif'
p1723
sg15
I400
sg16
g275
sg17
g12
sg18
V/usr/share/fonts/truetype/dejavu/DejaVuSerifCondensed-Italic.ttf
p1724
sg20
g21
sbag1
(g8
g3
NtRp1725
(dp1726
g11
g41
sg13
S'TeX Gyre Pagella'
p1727
sg15
I700
sg16
g12
sg17
g12
sg18
V/usr/share/texmf/fonts/opentype/public/tex-gyre/texgyrepagella-bolditalic.otf
p1728
sg20
g21
sbag1
(g8
g3
NtRp1729
(dp1730
g11
g12
sg13
S'KacstArt'
p1731
sg15
I400
sg16
g12
sg17
g12
sg18
V/usr/share/fonts/truetype/kacst/KacstArt.ttf
p1732
sg20
g21
sbag1
(g8
g3
NtRp1733
(dp1734
g11
g41
sg13
S'Liberation Sans Narrow'
p1735
sg15
I700
sg16
g275
sg17
g12
sg18
V/usr/share/fonts/truetype/liberation/LiberationSansNarrow-BoldItalic.ttf
p1736
sg20
g21
sbag1
(g8
g3
NtRp1737
(dp1738
g11
g41
sg13
S'Times New Roman'
p1739
sg15
I500
sg16
g12
sg17
g12
sg18
V/usr/share/fonts/truetype/msttcorefonts/timesi.ttf
p1740
sg20
g21
sbag1
(g8
g3
NtRp1741
(dp1742
g11
g12
sg13
S'Latin Modern Roman Dunhill'
p1743
sg15
I400
sg16
g12
sg17
g12
sg18
V/usr/share/texmf/fonts/opentype/public/lm/lmromandunh10-regular.otf
p1744
sg20
g21
sbag1
(g8
g3
NtRp1745
(dp1746
g11
g12
sg13
S'STIXIntegralsSm'
p1747
sg15
I700
sg16
g12
sg17
g12
sg18
V/usr/share/fonts/opentype/stix/STIXIntegralsSm-Bold.otf
p1748
sg20
g21
sbag1
(g8
g3
NtRp1749
(dp1750
g11
g12
sg13
S'Ubuntu Mono'
p1751
sg15
I700
sg16
g12
sg17
g12
sg18
V/usr/share/fonts/truetype/ubuntu-font-family/UbuntuMono-B.ttf
p1752
sg20
g21
sbag1
(g8
g3
NtRp1753
(dp1754
g11
g12
sg13
S'Latin Modern Sans'
p1755
sg15
I400
sg16
g12
sg17
g12
sg18
V/usr/share/texmf/fonts/opentype/public/lm/lmsans17-regular.otf
p1756
sg20
g21
sbag1
(g8
g3
NtRp1757
(dp1758
g11
g12
sg13
S'STIXSizeTwoSym'
p1759
sg15
I700
sg16
g12
sg17
g12
sg18
V/usr/share/fonts/opentype/stix/STIXSizeTwoSym-Bold.otf
p1760
sg20
g21
sbag1
(g8
g3
NtRp1761
(dp1762
g11
g41
sg13
S'Courier New'
p1763
sg15
I700
sg16
g12
sg17
g12
sg18
V/usr/share/fonts/truetype/msttcorefonts/Courier_New_Bold_Italic.ttf
p1764
sg20
g21
sbag1
(g8
g3
NtRp1765
(dp1766
g11
g12
sg13
S'MathJax_Main'
p1767
sg15
I700
sg16
g12
sg17
g12
sg18
V/usr/share/fonts/opentype/mathjax/MathJax_Main-Bold.otf
p1768
sg20
g21
sbag1
(g8
g3
NtRp1769
(dp1770
g11
g12
sg13
S'Liberation Sans Narrow'
p1771
sg15
I700
sg16
g275
sg17
g12
sg18
V/usr/share/fonts/truetype/ttf-liberation/LiberationSansNarrow-Bold.ttf
p1772
sg20
g21
sbag1
(g8
g3
NtRp1773
(dp1774
g11
g12
sg13
S'IPAexMincho'
p1775
sg15
I400
sg16
g12
sg17
g12
sg18
V/usr/share/fonts/opentype/ipaexfont-mincho/ipaexm.ttf
p1776
sg20
g21
sbag1
(g8
g3
NtRp1777
(dp1778
g11
g12
sg13
S'Rachana'
p1779
sg15
I400
sg16
g12
sg17
g12
sg18
V/usr/share/fonts/truetype/ttf-indic-fonts-core/Rachana_04.ttf
p1780
sg20
g21
sbag1
(g8
g3
NtRp1781
(dp1782
g11
g12
sg13
S'Kinnari'
p1783
sg15
I700
sg16
g12
sg17
g12
sg18
V/usr/share/fonts/truetype/tlwg/Kinnari-Bold.ttf
p1784
sg20
g21
sbag1
(g8
g3
NtRp1785
(dp1786
g11
g41
sg13
S'Lobster Two'
p1787
sg15
I700
sg16
g12
sg17
g12
sg18
V/usr/share/fonts/opentype/lobster/lobster.otf
p1788
sg20
g21
sbag1
(g8
g3
NtRp1789
(dp1790
g11
g12
sg13
S'IPAexGothic'
p1791
sg15
I400
sg16
g12
sg17
g12
sg18
V/usr/share/fonts/opentype/ipaexfont-gothic/ipaexg.ttf
p1792
sg20
g21
sbag1
(g8
g3
NtRp1793
(dp1794
g11
g28
sg13
S'TlwgTypewriter'
p1795
sg15
I700
sg16
g12
sg17
g12
sg18
V/usr/share/fonts/truetype/tlwg/TlwgTypewriter-BoldOblique.ttf
p1796
sg20
g21
sbag1
(g8
g3
NtRp1797
(dp1798
g11
g41
sg13
S'Gentium Book Basic'
p1799
sg15
I400
sg16
g12
sg17
g12
sg18
V/usr/share/fonts/truetype/gentium-basic/GenBkBasI.ttf
p1800
sg20
g21
sbag1
(g8
g3
NtRp1801
(dp1802
g11
g12
sg13
S'Ume Gothic'
p1803
sg15
I400
sg16
g12
sg17
g12
sg18
V/usr/share/fonts/truetype/horai-umefont/ume-tgo4.ttf
p1804
sg20
g21
sbag1
(g8
g3
NtRp1805
(dp1806
g11
g12
sg13
S'TeX Gyre Chorus'
p1807
sg15
I400
sg16
g12
sg17
g12
sg18
V/usr/share/texmf/fonts/opentype/public/tex-gyre/texgyrechorus-mediumitalic.otf
p1808
sg20
g21
sbag1
(g8
g3
NtRp1809
(dp1810
g11
g12
sg13
S'FreeSerif'
p1811
sg15
I400
sg16
g12
sg17
g12
sg18
V/usr/share/fonts/truetype/freefont/FreeSerif.ttf
p1812
sg20
g21
sbag1
(g8
g3
NtRp1813
(dp1814
g11
g12
sg13
S'Latin Modern Roman Slanted'
p1815
sg15
I400
sg16
g12
sg17
g12
sg18
V/usr/share/texmf/fonts/opentype/public/lm/lmromanslant10-regular.otf
p1816
sg20
g21
sbag1
(g8
g3
NtRp1817
(dp1818
g11
g12
sg13
S'Ume Gothic C4'
p1819
sg15
I400
sg16
g12
sg17
g12
sg18
V/usr/share/fonts/truetype/horai-umefont/ume-tgc4.ttf
p1820
sg20
g21
sbag1
(g8
g3
NtRp1821
(dp1822
g11
g41
sg13
S'STIXGeneral'
p1823
sg15
I400
sg16
g12
sg17
g12
sg18
V/usr/share/fonts/opentype/stix/STIXGeneral-Italic.otf
p1824
sg20
g21
sbag1
(g8
g3
NtRp1825
(dp1826
g11
g12
sg13
S'Droid Sans Japanese'
p1827
sg15
I400
sg16
g12
sg17
g12
sg18
V/usr/share/fonts/truetype/droid/DroidSansJapanese.ttf
p1828
sg20
g21
sbag1
(g8
g3
NtRp1829
(dp1830
g11
g28
sg13
S'Sawasdee'
p1831
sg15
I700
sg16
g12
sg17
g12
sg18
V/usr/share/fonts/truetype/tlwg/Sawasdee-BoldOblique.ttf
p1832
sg20
g21
sbag1
(g8
g3
NtRp1833
(dp1834
g11
g12
sg13
S'Sawasdee'
p1835
sg15
I700
sg16
g12
sg17
g12
sg18
V/usr/share/fonts/truetype/tlwg/Sawasdee-Bold.ttf
p1836
sg20
g21
sbag1
(g8
g3
NtRp1837
(dp1838
g11
g12
sg13
S'STIXIntegralsSm'
p1839
sg15
I400
sg16
g12
sg17
g12
sg18
V/usr/share/fonts/opentype/stix/STIXIntegralsSm-Regular.otf
p1840
sg20
g21
sbag1
(g8
g3
NtRp1841
(dp1842
g11
g12
sg13
S'Kedage'
p1843
sg15
I400
sg16
g12
sg17
g12
sg18
V/usr/share/fonts/truetype/ttf-indic-fonts-core/Kedage-n.ttf
p1844
sg20
g21
sbag1
(g8
g3
NtRp1845
(dp1846
g11
g28
sg13
S'Garuda'
p1847
sg15
I400
sg16
g12
sg17
g12
sg18
V/usr/share/fonts/truetype/tlwg/Garuda-Oblique.ttf
p1848
sg20
g21
sbag1
(g8
g3
NtRp1849
(dp1850
g11
g28
sg13
S'Latin Modern Sans'
p1851
sg15
I700
sg16
g12
sg17
g12
sg18
V/usr/share/texmf/fonts/opentype/public/lm/lmsans10-boldoblique.otf
p1852
sg20
g21
sbag1
(g8
g3
NtRp1853
(dp1854
g11
g12
sg13
S'Accanthis ADF Std'
p1855
sg15
I700
sg16
g12
sg17
g12
sg18
V/usr/share/fonts/truetype/adf/AccanthisADFStd-Bold.otf
p1856
sg20
g21
sbag1
(g8
g3
NtRp1857
(dp1858
g11
g12
sg13
S'NanumMyeongjo'
p1859
sg15
I400
sg16
g12
sg17
g12
sg18
V/usr/share/fonts/truetype/nanum/NanumMyeongjo.ttf
p1860
sg20
g21
sbag1
(g8
g3
NtRp1861
(dp1862
g11
g41
sg13
S'Lato'
p1863
sg15
I700
sg16
g12
sg17
g12
sg18
V/usr/share/fonts/truetype/lato/Lato-BolIta.ttf
p1864
sg20
g21
sbag1
(g8
g3
NtRp1865
(dp1866
g11
g12
sg13
S'GFS Neohellenic'
p1867
sg15
I700
sg16
g12
sg17
g12
sg18
V/usr/share/fonts/truetype/neohellenic/GFSNeohellenicBold.otf
p1868
sg20
g21
sbag1
(g8
g3
NtRp1869
(dp1870
g11
g12
sg13
S'GFS Complutum'
p1871
sg15
I400
sg16
g12
sg17
g12
sg18
V/usr/share/fonts/truetype/complutum/GFSPolyglot.otf
p1872
sg20
g21
sbag1
(g8
g3
NtRp1873
(dp1874
g11
g12
sg13
S'Loma'
p1875
sg15
I700
sg16
g12
sg17
g12
sg18
V/usr/share/fonts/truetype/tlwg/Loma-Bold.ttf
p1876
sg20
g21
sbag1
(g8
g3
NtRp1877
(dp1878
g11
g12
sg13
S'Ume P Gothic S4'
p1879
sg15
I400
sg16
g12
sg17
g12
sg18
V/usr/share/fonts/truetype/horai-umefont/ume-pgs4.ttf
p1880
sg20
g21
sbag1
(g8
g3
NtRp1881
(dp1882
g11
g12
sg13
S'KacstPen'
p1883
sg15
I400
sg16
g12
sg17
g12
sg18
V/usr/share/fonts/truetype/kacst/KacstPen.ttf
p1884
sg20
g21
sbag1
(g8
g3
NtRp1885
(dp1886
g11
g12
sg13
S'STIXSizeFourSym'
p1887
sg15
I400
sg16
g12
sg17
g12
sg18
V/usr/share/fonts/opentype/stix/STIXSizeFourSym-Regular.otf
p1888
sg20
g21
sbag1
(g8
g3
NtRp1889
(dp1890
g11
g12
sg13
S'Trebuchet MS'
p1891
sg15
I700
sg16
g12
sg17
g12
sg18
V/usr/share/fonts/truetype/msttcorefonts/trebucbd.ttf
p1892
sg20
g21
sbag1
(g8
g3
NtRp1893
(dp1894
g11
g41
sg13
S'Linux Libertine O'
p1895
sg15
I700
sg16
g12
sg17
g12
sg18
V/usr/share/fonts/opentype/linux-libertine/LinLibertine_RBI.otf
p1896
sg20
g21
sbag1
(g8
g3
NtRp1897
(dp1898
g11
g12
sg13
S'IPAPMincho'
p1899
sg15
I400
sg16
g12
sg17
g12
sg18
V/usr/share/fonts/opentype/ipafont-mincho/ipamp.ttf
p1900
sg20
g21
sbag1
(g8
g3
NtRp1901
(dp1902
g11
g41
sg13
S'FreeSerif'
p1903
sg15
I400
sg16
g12
sg17
g12
sg18
V/usr/share/fonts/truetype/freefont/FreeSerifItalic.ttf
p1904
sg20
g21
sbag1
(g8
g3
NtRp1905
(dp1906
g11
g12
sg13
S'Latin Modern Roman Slanted'
p1907
sg15
I700
sg16
g12
sg17
g12
sg18
V/usr/share/texmf/fonts/opentype/public/lm/lmromanslant10-bold.otf
p1908
sg20
g21
sbag1
(g8
g3
NtRp1909
(dp1910
g11
g28
sg13
S'Latin Modern Roman Caps'
p1911
sg15
I500
sg16
g12
sg17
g12
sg18
V/usr/share/texmf/fonts/opentype/public/lm/lmromancaps10-oblique.otf
p1912
sg20
g21
sbag1
(g8
g3
NtRp1913
(dp1914
g11
g12
sg13
S'KacstDecorative'
p1915
sg15
I400
sg16
g12
sg17
g12
sg18
V/usr/share/fonts/truetype/kacst/KacstDecorative.ttf
p1916
sg20
g21
sbag1
(g8
g3
NtRp1917
(dp1918
g11
g12
sg13
S'TeX Gyre Pagella'
p1919
sg15
I400
sg16
g12
sg17
g12
sg18
V/usr/share/texmf/fonts/opentype/public/tex-gyre/texgyrepagella-regular.otf
p1920
sg20
g21
sbag1
(g8
g3
NtRp1921
(dp1922
g11
g12
sg13
S'Mallige'
p1923
sg15
I700
sg16
g12
sg17
g12
sg18
V/usr/share/fonts/truetype/ttf-indic-fonts-core/Malige-b.ttf
p1924
sg20
g21
sbag1
(g8
g3
NtRp1925
(dp1926
g11
g41
sg13
S'TeX Gyre Cursor'
p1927
sg15
I400
sg16
g12
sg17
g12
sg18
V/usr/share/texmf/fonts/opentype/public/tex-gyre/texgyrecursor-italic.otf
p1928
sg20
g21
sbag1
(g8
g3
NtRp1929
(dp1930
g11
g41
sg13
S'Accanthis ADF Std No2'
p1931
sg15
I400
sg16
g12
sg17
g12
sg18
V/usr/share/fonts/truetype/adf/AccanthisADFStdNo2-Italic.otf
p1932
sg20
g21
sbag1
(g8
g3
NtRp1933
(dp1934
g11
g12
sg13
S'Latin Modern Roman'
p1935
sg15
I400
sg16
g12
sg17
g12
sg18
V/usr/share/texmf/fonts/opentype/public/lm/lmroman6-regular.otf
p1936
sg20
g21
sbag1
(g8
g3
NtRp1937
(dp1938
g11
g12
sg13
S'Gillius ADF Cd'
p1939
sg15
I700
sg16
g12
sg17
g12
sg18
V/usr/share/fonts/truetype/adf/GilliusADFCd-Bold.otf
p1940
sg20
g21
sbag1
(g8
g3
NtRp1941
(dp1942
g11
g41
sg13
S'Verdana'
p1943
sg15
I400
sg16
g12
sg17
g12
sg18
V/usr/share/fonts/truetype/msttcorefonts/verdanai.ttf
p1944
sg20
g21
sbag1
(g8
g3
NtRp1945
(dp1946
g11
g12
sg13
S'STIXIntegralsUpSm'
p1947
sg15
I400
sg16
g12
sg17
g12
sg18
V/usr/share/fonts/opentype/stix/STIXIntegralsUpSm-Regular.otf
p1948
sg20
g21
sbag1
(g8
g3
NtRp1949
(dp1950
g11
g12
sg13
S'MathJax_SansSerif'
p1951
sg15
I400
sg16
g12
sg17
g12
sg18
V/usr/share/fonts/opentype/mathjax/MathJax_SansSerif-Regular.otf
p1952
sg20
g21
sbag1
(g8
g3
NtRp1953
(dp1954
g11
g41
sg13
S'Junicode'
p1955
sg15
I400
sg16
g12
sg17
g12
sg18
V/usr/share/fonts/truetype/junicode/Junicode-Italic.ttf
p1956
sg20
g21
sbag1
(g8
g3
NtRp1957
(dp1958
g11
g12
sg13
S'Latin Modern Sans'
p1959
sg15
I400
sg16
g12
sg17
g12
sg18
V/usr/share/texmf/fonts/opentype/public/lm/lmsans9-regular.otf
p1960
sg20
g21
sbag1
(g8
g3
NtRp1961
(dp1962
g11
g28
sg13
S'Latin Modern Mono Light'
p1963
sg15
I200
sg16
g12
sg17
g12
sg18
V/usr/share/texmf/fonts/opentype/public/lm/lmmonolt10-oblique.otf
p1964
sg20
g21
sbag1
(g8
g3
NtRp1965
(dp1966
g11
g12
sg13
S'FreeMono'
p1967
sg15
I400
sg16
g12
sg17
g12
sg18
V/usr/share/fonts/opentype/freefont/FreeMono.otf
p1968
sg20
g21
sbag1
(g8
g3
NtRp1969
(dp1970
g11
g12
sg13
S'Droid Serif'
p1971
sg15
I700
sg16
g12
sg17
g12
sg18
V/usr/share/fonts/truetype/droid/DroidSerif-Bold.ttf
p1972
sg20
g21
sbag1
(g8
g3
NtRp1973
(dp1974
g11
g12
sg13
S'Meera'
p1975
sg15
I400
sg16
g12
sg17
g12
sg18
V/usr/share/fonts/truetype/ttf-indic-fonts-core/Meera_04.ttf
p1976
sg20
g21
sbag1
(g8
g3
NtRp1977
(dp1978
g11
g12
sg13
S'Liberation Mono'
p1979
sg15
I400
sg16
g12
sg17
g12
sg18
V/usr/share/fonts/truetype/ttf-liberation/LiberationMono-Regular.ttf
p1980
sg20
g21
sbag1
(g8
g3
NtRp1981
(dp1982
g11
g28
sg13
S'Umpush'
p1983
sg15
I200
sg16
g12
sg17
g12
sg18
V/usr/share/fonts/truetype/tlwg/Umpush-LightOblique.ttf
p1984
sg20
g21
sbag1
(g8
g3
NtRp1985
(dp1986
g11
g12
sg13
S'MathJax_Typewriter'
p1987
sg15
I400
sg16
g12
sg17
g12
sg18
V/usr/share/fonts/opentype/mathjax/MathJax_Typewriter-Regular.otf
p1988
sg20
g21
sbag1
(g8
g3
NtRp1989
(dp1990
g11
g12
sg13
S'Tlwg Typo'
p1991
sg15
I400
sg16
g12
sg17
g12
sg18
V/usr/share/fonts/truetype/tlwg/TlwgTypo.ttf
p1992
sg20
g21
sbag1
(g8
g3
NtRp1993
(dp1994
g11
g12
sg13
S'Georgia'
p1995
sg15
I700
sg16
g12
sg17
g12
sg18
V/usr/share/fonts/truetype/msttcorefonts/georgiab.ttf
p1996
sg20
g21
sbag1
(g8
g3
NtRp1997
(dp1998
g11
g28
sg13
S'FreeSans'
p1999
sg15
I400
sg16
g12
sg17
g12
sg18
V/usr/share/fonts/truetype/freefont/FreeSansOblique.ttf
p2000
sg20
g21
sbag1
(g8
g3
NtRp2001
(dp2002
g11
g12
sg13
S'Gentium Basic'
p2003
sg15
I700
sg16
g12
sg17
g12
sg18
V/usr/share/fonts/truetype/gentium-basic/GenBasB.ttf
p2004
sg20
g21
sbag1
(g8
g3
NtRp2005
(dp2006
g11
g28
sg13
S'Latin Modern Roman Dunhill'
p2007
sg15
I500
sg16
g12
sg17
g12
sg18
V/usr/share/texmf/fonts/opentype/public/lm/lmromandunh10-oblique.otf
p2008
sg20
g21
sbag1
(g8
g3
NtRp2009
(dp2010
g11
g12
sg13
S'Liberation Sans'
p2011
sg15
I700
sg16
g12
sg17
g12
sg18
V/usr/share/fonts/truetype/liberation/LiberationSans-Bold.ttf
p2012
sg20
g21
sbag1
(g8
g3
NtRp2013
(dp2014
g11
g12
sg13
S'Accanthis ADF Std No3'
p2015
sg15
I700
sg16
g12
sg17
g12
sg18
V/usr/share/fonts/truetype/adf/AccanthisADFStdNo3-Bold.otf
p2016
sg20
g21
sbag1
(g8
g3
NtRp2017
(dp2018
g11
g41
sg13
S'rsfs10'
p2019
sg15
I400
sg16
g12
sg17
g12
sg18
V/usr/share/fonts/truetype/lyx/rsfs10.ttf
p2020
sg20
g21
sbag1
(g8
g3
NtRp2021
(dp2022
g11
g41
sg13
S'TeX Gyre Bonum'
p2023
sg15
I400
sg16
g12
sg17
g12
sg18
V/usr/share/texmf/fonts/opentype/public/tex-gyre/texgyrebonum-italic.otf
p2024
sg20
g21
sbag1
(g8
g3
NtRp2025
(dp2026
g11
g12
sg13
S'STIXVariants'
p2027
sg15
I400
sg16
g12
sg17
g12
sg18
V/usr/share/fonts/opentype/stix/STIXVariants-Regular.otf
p2028
sg20
g21
sbag1
(g8
g3
NtRp2029
(dp2030
g11
g12
sg13
S'Latin Modern Sans'
p2031
sg15
I400
sg16
g12
sg17
g12
sg18
V/usr/share/texmf/fonts/opentype/public/lm/lmsans10-regular.otf
p2032
sg20
g21
sbag1
(g8
g3
NtRp2033
(dp2034
g11
g41
sg13
S'Times New Roman'
p2035
sg15
I700
sg16
g12
sg17
g12
sg18
V/usr/share/fonts/truetype/msttcorefonts/Times_New_Roman_Bold_Italic.ttf
p2036
sg20
g21
sbag1
(g8
g3
NtRp2037
(dp2038
g11
g12
sg13
S'Gentium Book Basic'
p2039
sg15
I700
sg16
g12
sg17
g12
sg18
V/usr/share/fonts/truetype/gentium-basic/GenBkBasB.ttf
p2040
sg20
g21
sbag1
(g8
g3
NtRp2041
(dp2042
g11
g12
sg13
S'Ume Mincho'
p2043
sg15
I400
sg16
g12
sg17
g12
sg18
V/usr/share/fonts/truetype/horai-umefont/ume-tmo3.ttf
p2044
sg20
g21
sbag1
(g8
g3
NtRp2045
(dp2046
g11
g12
sg13
S'Garuda'
p2047
sg15
I400
sg16
g12
sg17
g12
sg18
V/usr/share/fonts/truetype/tlwg/Garuda.ttf
p2048
sg20
g21
sbag1
(g8
g3
NtRp2049
(dp2050
g11
g12
sg13
S'mry_KacstQurn'
p2051
sg15
I400
sg16
g12
sg17
g12
sg18
V/usr/share/fonts/truetype/kacst/mry_KacstQurn.ttf
p2052
sg20
g21
sbag1
(g8
g3
NtRp2053
(dp2054
g11
g12
sg13
S'Lato'
p2055
sg15
I200
sg16
g12
sg17
g12
sg18
V/usr/share/fonts/truetype/lato/Lato-Lig.ttf
p2056
sg20
g21
sbag1
(g8
g3
NtRp2057
(dp2058
g11
g28
sg13
S'Latin Modern Sans'
p2059
sg15
I400
sg16
g12
sg17
g12
sg18
V/usr/share/texmf/fonts/opentype/public/lm/lmsans10-oblique.otf
p2060
sg20
g21
sbag1
(g8
g3
NtRp2061
(dp2062
g11
g12
sg13
S'Tibetan Machine Uni'
p2063
sg15
I400
sg16
g12
sg17
g12
sg18
V/usr/share/fonts/truetype/tibetan-machine/TibetanMachineUni.ttf
p2064
sg20
g21
sbag1
(g8
g3
NtRp2065
(dp2066
g11
g41
sg13
S'Cabin'
p2067
sg15
I700
sg16
g12
sg17
g12
sg18
V/usr/share/fonts/opentype/cabin/Cabin-SemiBoldItalic.otf
p2068
sg20
g21
sbag1
(g8
g3
NtRp2069
(dp2070
g11
g12
sg13
S'Latin Modern Sans Quotation'
p2071
sg15
I400
sg16
g12
sg17
g12
sg18
V/usr/share/texmf/fonts/opentype/public/lm/lmsansquot8-regular.otf
p2072
sg20
g21
sbag1
(g8
g3
NtRp2073
(dp2074
g11
g41
sg13
S'Accanthis ADF Std'
p2075
sg15
I700
sg16
g12
sg17
g12
sg18
V/usr/share/fonts/truetype/adf/AccanthisADFStd-BoldItalic.otf
p2076
sg20
g21
sbag1
(g8
g3
NtRp2077
(dp2078
g11
g12
sg13
S'KacstOne'
p2079
sg15
I700
sg16
g12
sg17
g12
sg18
V/usr/share/fonts/truetype/kacst-one/KacstOne-Bold.ttf
p2080
sg20
g21
sbag1
(g8
g3
NtRp2081
(dp2082
g11
g12
sg13
S'Linux Libertine Display O'
p2083
sg15
I400
sg16
g12
sg17
g12
sg18
V/usr/share/fonts/opentype/linux-libertine/LinLibertine_DR.otf
p2084
sg20
g21
sbag1
(g8
g3
NtRp2085
(dp2086
g11
g12
sg13
S'UnGraphic'
p2087
sg15
I400
sg16
g12
sg17
g12
sg18
V/usr/share/fonts/truetype/unfonts-core/UnGraphic.ttf
p2088
sg20
g21
sbag1
(g8
g3
NtRp2089
(dp2090
g11
g28
sg13
S'Latin Modern Mono Caps'
p2091
sg15
I400
sg16
g12
sg17
g12
sg18
V/usr/share/texmf/fonts/opentype/public/lm/lmmonocaps10-oblique.otf
p2092
sg20
g21
sbag1
(g8
g3
NtRp2093
(dp2094
g11
g12
sg13
S'Ume P Gothic C5'
p2095
sg15
I400
sg16
g12
sg17
g12
sg18
V/usr/share/fonts/truetype/horai-umefont/ume-pgc5.ttf
p2096
sg20
g21
sbag1
(g8
g3
NtRp2097
(dp2098
g11
g12
sg13
S'Latin Modern Roman'
p2099
sg15
I400
sg16
g12
sg17
g12
sg18
V/usr/share/texmf/fonts/opentype/public/lm/lmroman10-regular.otf
p2100
sg20
g21
sbag1
(g8
g3
NtRp2101
(dp2102
g11
g28
sg13
S'FreeMono'
p2103
sg15
I400
sg16
g12
sg17
g12
sg18
V/usr/share/fonts/opentype/freefont/FreeMonoOblique.otf
p2104
sg20
g21
sbag1
(g8
g3
NtRp2105
(dp2106
g11
g12
sg13
S'eufm10'
p2107
sg15
I400
sg16
g12
sg17
g12
sg18
V/usr/share/fonts/truetype/lyx/eufm10.ttf
p2108
sg20
g21
sbag1
(g8
g3
NtRp2109
(dp2110
g11
g12
sg13
S'esint10'
p2111
sg15
I400
sg16
g12
sg17
g12
sg18
V/usr/share/fonts/truetype/lyx/esint10.ttf
p2112
sg20
g21
sbag1
(g8
g3
NtRp2113
(dp2114
g11
g12
sg13
S'Latin Modern Roman'
p2115
sg15
I400
sg16
g12
sg17
g12
sg18
V/usr/share/texmf/fonts/opentype/public/lm/lmroman17-regular.otf
p2116
sg20
g21
sbag1
(g8
g3
NtRp2117
(dp2118
g11
g41
sg13
S'Arial'
p2119
sg15
I700
sg16
g12
sg17
g12
sg18
V/usr/share/fonts/truetype/msttcorefonts/Arial_Bold_Italic.ttf
p2120
sg20
g21
sbag1
(g8
g3
NtRp2121
(dp2122
g11
g12
sg13
S'STIXIntegralsUpD'
p2123
sg15
I400
sg16
g12
sg17
g12
sg18
V/usr/share/fonts/opentype/stix/STIXIntegralsUpD-Regular.otf
p2124
sg20
g21
sbag1
(g8
g3
NtRp2125
(dp2126
g11
g41
sg13
S'MathJax_SansSerif'
p2127
sg15
I400
sg16
g12
sg17
g12
sg18
V/usr/share/fonts/opentype/mathjax/MathJax_SansSerif-Italic.otf
p2128
sg20
g21
sbag1
(g8
g3
NtRp2129
(dp2130
g11
g12
sg13
S'Comic Sans MS'
p2131
sg15
I700
sg16
g12
sg17
g12
sg18
V/usr/share/fonts/truetype/msttcorefonts/comicbd.ttf
p2132
sg20
g21
sbag1
(g8
g3
NtRp2133
(dp2134
g11
g12
sg13
S'TeX Gyre Schola'
p2135
sg15
I400
sg16
g12
sg17
g12
sg18
V/usr/share/texmf/fonts/opentype/public/tex-gyre/texgyreschola-regular.otf
p2136
sg20
g21
sbag1
(g8
g3
NtRp2137
(dp2138
g11
g41
sg13
S'Verdana'
p2139
sg15
I400
sg16
g12
sg17
g12
sg18
V/usr/share/fonts/truetype/msttcorefonts/Verdana_Italic.ttf
p2140
sg20
g21
sbag1
(g8
g3
NtRp2141
(dp2142
g11
g28
sg13
S'Latin Modern Roman Demi'
p2143
sg15
I600
sg16
g12
sg17
g12
sg18
V/usr/share/texmf/fonts/opentype/public/lm/lmromandemi10-oblique.otf
p2144
sg20
g21
sbag1
(g8
g3
NtRp2145
(dp2146
g11
g12
sg13
S'Latin Modern Roman Slanted'
p2147
sg15
I400
sg16
g12
sg17
g12
sg18
V/usr/share/texmf/fonts/opentype/public/lm/lmromanslant17-regular.otf
p2148
sg20
g21
sbag1
(g8
g3
NtRp2149
(dp2150
g11
g41
sg13
S'Cabin'
p2151
sg15
I500
sg16
g12
sg17
g12
sg18
V/usr/share/fonts/opentype/cabin/Cabin-MediumItalic.otf
p2152
sg20
g21
sbag1
(g8
g3
NtRp2153
(dp2154
g11
g12
sg13
S'Verdana'
p2155
sg15
I400
sg16
g12
sg17
g12
sg18
V/usr/share/fonts/truetype/msttcorefonts/verdana.ttf
p2156
sg20
g21
sbag1
(g8
g3
NtRp2157
(dp2158
g11
g12
sg13
S'Droid Sans Georgian'
p2159
sg15
I400
sg16
g12
sg17
g12
sg18
V/usr/share/fonts/truetype/droid/DroidSansGeorgian.ttf
p2160
sg20
g21
sbag1
(g8
g3
NtRp2161
(dp2162
g11
g12
sg13
S'Amiri'
p2163
sg15
I400
sg16
g12
sg17
g12
sg18
V/usr/share/fonts/opentype/fonts-hosny-amiri/amiri-regular.ttf
p2164
sg20
g21
sbag1
(g8
g3
NtRp2165
(dp2166
g11
g41
sg13
S'Ubuntu Mono'
p2167
sg15
I700
sg16
g12
sg17
g12
sg18
V/usr/share/fonts/truetype/ubuntu-font-family/UbuntuMono-BI.ttf
p2168
sg20
g21
sbag1
(g8
g3
NtRp2169
(dp2170
g11
g12
sg13
S'IPAexMincho'
p2171
sg15
I400
sg16
g12
sg17
g12
sg18
V/usr/share/fonts/truetype/fonts-japanese-mincho.ttf
p2172
sg20
g21
sbag1
(g8
g3
NtRp2173
(dp2174
g11
g12
sg13
S'Comic Sans MS'
p2175
sg15
I700
sg16
g12
sg17
g12
sg18
V/usr/share/fonts/truetype/msttcorefonts/Comic_Sans_MS_Bold.ttf
p2176
sg20
g21
sbag1
(g8
g3
NtRp2177
(dp2178
g11
g12
sg13
S'Latin Modern Mono Light'
p2179
sg15
I400
sg16
g12
sg17
g12
sg18
V/usr/share/texmf/fonts/opentype/public/lm/lmmonolt10-regular.otf
p2180
sg20
g21
sbag1
(g8
g3
NtRp2181
(dp2182
g11
g41
sg13
S'Linux Libertine O'
p2183
sg15
I400
sg16
g12
sg17
g12
sg18
V/usr/share/fonts/opentype/linux-libertine/LinLibertine_RI.otf
p2184
sg20
g21
sbag1
(g8
g3
NtRp2185
(dp2186
g11
g12
sg13
S'Linux Biolinum O'
p2187
sg15
I400
sg16
g12
sg17
g12
sg18
V/usr/share/fonts/opentype/linux-libertine/LinBiolinum_R.otf
p2188
sg20
g21
sbag1
(g8
g3
NtRp2189
(dp2190
g11
g28
sg13
S'Latin Modern Mono Prop Light'
p2191
sg15
I200
sg16
g12
sg17
g12
sg18
V/usr/share/texmf/fonts/opentype/public/lm/lmmonoproplt10-oblique.otf
p2192
sg20
g21
sbag1
(g8
g3
NtRp2193
(dp2194
g11
g12
sg13
S'Latin Modern Roman'
p2195
sg15
I700
sg16
g12
sg17
g12
sg18
V/usr/share/texmf/fonts/opentype/public/lm/lmroman5-bold.otf
p2196
sg20
g21
sbag1
(g8
g3
NtRp2197
(dp2198
g11
g12
sg13
S'Padauk'
p2199
sg15
I700
sg16
g12
sg17
g12
sg18
V/usr/share/fonts/truetype/padauk/Padauk-bold.ttf
p2200
sg20
g21
sbag1
(g8
g3
NtRp2201
(dp2202
g11
g41
sg13
S'Courier New'
p2203
sg15
I400
sg16
g12
sg17
g12
sg18
V/usr/share/fonts/truetype/msttcorefonts/couri.ttf
p2204
sg20
g21
sbag1
(g8
g3
NtRp2205
(dp2206
g11
g12
sg13
S'Rekha'
p2207
sg15
I400
sg16
g12
sg17
g12
sg18
V/usr/share/fonts/truetype/ttf-indic-fonts-core/Rekha.ttf
p2208
sg20
g21
sbag1
(g8
g3
NtRp2209
(dp2210
g11
g28
sg13
S'Garuda'
p2211
sg15
I700
sg16
g12
sg17
g12
sg18
V/usr/share/fonts/truetype/tlwg/Garuda-BoldOblique.ttf
p2212
sg20
g21
sbag1
(g8
g3
NtRp2213
(dp2214
g11
g12
sg13
S'TeX Gyre Pagella'
p2215
sg15
I700
sg16
g12
sg17
g12
sg18
V/usr/share/texmf/fonts/opentype/public/tex-gyre/texgyrepagella-bold.otf
p2216
sg20
g21
sbag1
(g8
g3
NtRp2217
(dp2218
g11
g12
sg13
S'MathJax_WinIE6'
p2219
sg15
I400
sg16
g12
sg17
g12
sg18
V/usr/share/fonts/opentype/mathjax/MathJax_WinIE6-Regular.otf
p2220
sg20
g21
sbag1
(g8
g3
NtRp2221
(dp2222
g11
g12
sg13
S'Arial Black'
p2223
sg15
I900
sg16
g12
sg17
g12
sg18
V/usr/share/fonts/truetype/msttcorefonts/ariblk.ttf
p2224
sg20
g21
sbag1
(g8
g3
NtRp2225
(dp2226
g11
g41
sg13
S'Trebuchet MS'
p2227
sg15
I700
sg16
g12
sg17
g12
sg18
V/usr/share/fonts/truetype/msttcorefonts/Trebuchet_MS_Bold_Italic.ttf
p2228
sg20
g21
sbag1
(g8
g3
NtRp2229
(dp2230
g11
g12
sg13
S'TeX Gyre Bonum'
p2231
sg15
I700
sg16
g12
sg17
g12
sg18
V/usr/share/texmf/fonts/opentype/public/tex-gyre/texgyrebonum-bold.otf
p2232
sg20
g21
sbag1
(g8
g3
NtRp2233
(dp2234
g11
g12
sg13
S'Latin Modern Mono Prop Light'
p2235
sg15
I400
sg16
g12
sg17
g12
sg18
V/usr/share/texmf/fonts/opentype/public/lm/lmmonoproplt10-regular.otf
p2236
sg20
g21
sbag1
(g8
g3
NtRp2237
(dp2238
g11
g12
sg13
S'Latin Modern Roman Slanted'
p2239
sg15
I400
sg16
g12
sg17
g12
sg18
V/usr/share/texmf/fonts/opentype/public/lm/lmromanslant8-regular.otf
p2240
sg20
g21
sbag1
(g8
g3
NtRp2241
(dp2242
g11
g12
sg13
S'Gillius ADF No2'
p2243
sg15
I700
sg16
g12
sg17
g12
sg18
V/usr/share/fonts/truetype/adf/GilliusADFNo2-Bold.otf
p2244
sg20
g21
sbag1
(g8
g3
NtRp2245
(dp2246
g11
g12
sg13
S'Ume Gothic S4'
p2247
sg15
I400
sg16
g12
sg17
g12
sg18
V/usr/share/fonts/truetype/horai-umefont/ume-tgs4.ttf
p2248
sg20
g21
sbag1
(g8
g3
NtRp2249
(dp2250
g11
g12
sg13
S'GentiumAlt'
p2251
sg15
I400
sg16
g12
sg17
g12
sg18
V/usr/share/fonts/truetype/gentium/GenAR102.ttf
p2252
sg20
g21
sbag1
(g8
g3
NtRp2253
(dp2254
g11
g12
sg13
S'Verdana'
p2255
sg15
I700
sg16
g12
sg17
g12
sg18
V/usr/share/fonts/truetype/msttcorefonts/Verdana_Bold.ttf
p2256
sg20
g21
sbag1
(g8
g3
NtRp2257
(dp2258
g11
g28
sg13
S'Umpush'
p2259
sg15
I700
sg16
g12
sg17
g12
sg18
V/usr/share/fonts/truetype/tlwg/Umpush-BoldOblique.ttf
p2260
sg20
g21
sbag1
(g8
g3
NtRp2261
(dp2262
g11
g12
sg13
S'UnPilgi'
p2263
sg15
I400
sg16
g12
sg17
g12
sg18
V/usr/share/fonts/truetype/unfonts-core/UnPilgi.ttf
p2264
sg20
g21
sbag1
(g8
g3
NtRp2265
(dp2266
g11
g41
sg13
S'Droid Serif'
p2267
sg15
I400
sg16
g12
sg17
g12
sg18
V/usr/share/fonts/truetype/droid/DroidSerif-Italic.ttf
p2268
sg20
g21
sbag1
(g8
g3
NtRp2269
(dp2270
g11
g12
sg13
S'Tlwg Typo'
p2271
sg15
I700
sg16
g12
sg17
g12
sg18
V/usr/share/fonts/truetype/tlwg/TlwgTypo-Bold.ttf
p2272
sg20
g21
sbag1
(g8
g3
NtRp2273
(dp2274
g11
g12
sg13
S'Cabin'
p2275
sg15
I700
sg16
g12
sg17
g12
sg18
V/usr/share/fonts/opentype/cabin/Cabin-SemiBold.otf
p2276
sg20
g21
sbag1
(g8
g3
NtRp2277
(dp2278
g11
g41
sg13
S'Arial'
p2279
sg15
I400
sg16
g12
sg17
g12
sg18
V/usr/share/fonts/truetype/msttcorefonts/Arial_Italic.ttf
p2280
sg20
g21
sbag1
(g8
g3
NtRp2281
(dp2282
g11
g12
sg13
S'TlwgTypewriter'
p2283
sg15
I700
sg16
g12
sg17
g12
sg18
V/usr/share/fonts/truetype/tlwg/TlwgTypewriter-Bold.ttf
p2284
sg20
g21
sbag1
(g8
g3
NtRp2285
(dp2286
g11
g28
sg13
S'Waree'
p2287
sg15
I700
sg16
g12
sg17
g12
sg18
V/usr/share/fonts/truetype/tlwg/Waree-BoldOblique.ttf
p2288
sg20
g21
sbag1
(g8
g3
NtRp2289
(dp2290
g11
g12
sg13
S'STIXNonUnicode'
p2291
sg15
I700
sg16
g12
sg17
g12
sg18
V/usr/share/fonts/opentype/stix/STIXNonUnicode-Bold.otf
p2292
sg20
g21
sbag1
(g8
g3
NtRp2293
(dp2294
g11
g41
sg13
S'FreeSerif'
p2295
sg15
I700
sg16
g12
sg17
g12
sg18
V/usr/share/fonts/truetype/freefont/FreeSerifBoldItalic.ttf
p2296
sg20
g21
sbag1
(g8
g3
NtRp2297
(dp2298
g11
g12
sg13
S'Vemana2000'
p2299
sg15
I400
sg16
g12
sg17
g12
sg18
V/usr/share/fonts/truetype/ttf-indic-fonts-core/Vemana.ttf
p2300
sg20
g21
sbag1
(g8
g3
NtRp2301
(dp2302
g11
g12
sg13
S'STIXSizeThreeSym'
p2303
sg15
I700
sg16
g12
sg17
g12
sg18
V/usr/share/fonts/opentype/stix/STIXSizeThreeSym-Bold.otf
p2304
sg20
g21
sbag1
(g8
g3
NtRp2305
(dp2306
g11
g12
sg13
S'Ume P Gothic O5'
p2307
sg15
I400
sg16
g12
sg17
g12
sg18
V/usr/share/fonts/truetype/horai-umefont/ume-pgo5.ttf
p2308
sg20
g21
sbag1
(g8
g3
NtRp2309
(dp2310
g11
g12
sg13
S'TG Termes Math'
p2311
sg15
I400
sg16
g12
sg17
g12
sg18
V/usr/share/texmf/fonts/opentype/public/tex-gyre-math/texgyretermes-math.otf
p2312
sg20
g21
sbag1
(g8
g3
NtRp2313
(dp2314
g11
g28
sg13
S'Tlwg Typo'
p2315
sg15
I400
sg16
g12
sg17
g12
sg18
V/usr/share/fonts/truetype/tlwg/TlwgTypo-Oblique.ttf
p2316
sg20
g21
sbag1
(g8
g3
NtRp2317
(dp2318
g11
g12
sg13
S'Ume P Gothic S5'
p2319
sg15
I400
sg16
g12
sg17
g12
sg18
V/usr/share/fonts/truetype/horai-umefont/ume-pgs5.ttf
p2320
sg20
g21
sbag1
(g8
g3
NtRp2321
(dp2322
g11
g12
sg13
S'Droid Sans'
p2323
sg15
I700
sg16
g12
sg17
g12
sg18
V/usr/share/fonts/truetype/droid/DroidSans-Bold.ttf
p2324
sg20
g21
sbag1
(g8
g3
NtRp2325
(dp2326
g11
g12
sg13
S'Lobster Two'
p2327
sg15
I400
sg16
g12
sg17
g12
sg18
V/usr/share/fonts/opentype/lobstertwo/LobsterTwo-Regular.otf
p2328
sg20
g21
sbag1
(g8
g3
NtRp2329
(dp2330
g11
g28
sg13
S'Waree'
p2331
sg15
I400
sg16
g12
sg17
g12
sg18
V/usr/share/fonts/truetype/tlwg/Waree-Oblique.ttf
p2332
sg20
g21
sbag1
(g8
g3
NtRp2333
(dp2334
g11
g12
sg13
S'Latin Modern Mono Prop Light'
p2335
sg15
I700
sg16
g12
sg17
g12
sg18
V/usr/share/texmf/fonts/opentype/public/lm/lmmonoproplt10-bold.otf
p2336
sg20
g21
sbag1
(g8
g3
NtRp2337
(dp2338
g11
g12
sg13
S'GFS Neohellenic'
p2339
sg15
I400
sg16
g12
sg17
g12
sg18
V/usr/share/fonts/truetype/neohellenic/GFSNeohellenic.otf
p2340
sg20
g21
sbag1
(g8
g3
NtRp2341
(dp2342
g11
g12
sg13
S'Arial'
p2343
sg15
I700
sg16
g12
sg17
g12
sg18
V/usr/share/fonts/truetype/msttcorefonts/arialbd.ttf
p2344
sg20
g21
sbag1
(g8
g3
NtRp2345
(dp2346
g11
g12
sg13
S'FreeSans'
p2347
sg15
I700
sg16
g12
sg17
g12
sg18
V/usr/share/fonts/opentype/freefont/FreeSansBold.otf
p2348
sg20
g21
sbag1
(g8
g3
NtRp2349
(dp2350
g11
g41
sg13
S'Ubuntu'
p2351
sg15
I500
sg16
g12
sg17
g12
sg18
V/usr/share/fonts/truetype/ubuntu-font-family/Ubuntu-MI.ttf
p2352
sg20
g21
sbag1
(g8
g3
NtRp2353
(dp2354
g11
g12
sg13
S'Droid Sans Thai'
p2355
sg15
I400
sg16
g12
sg17
g12
sg18
V/usr/share/fonts/truetype/droid/DroidSansThai.ttf
p2356
sg20
g21
sbag1
(g8
g3
NtRp2357
(dp2358
g11
g12
sg13
S'Arial'
p2359
sg15
I400
sg16
g12
sg17
g12
sg18
V/usr/share/fonts/truetype/msttcorefonts/arial.ttf
p2360
sg20
g21
sbag1
(g8
g3
NtRp2361
(dp2362
g11
g12
sg13
S'Latin Modern Roman Unslanted'
p2363
sg15
I400
sg16
g12
sg17
g12
sg18
V/usr/share/texmf/fonts/opentype/public/lm/lmromanunsl10-regular.otf
p2364
sg20
g21
sbag1
(g8
g3
NtRp2365
(dp2366
g11
g12
sg13
S'Comic Sans MS'
p2367
sg15
I400
sg16
g12
sg17
g12
sg18
V/usr/share/fonts/truetype/msttcorefonts/comic.ttf
p2368
sg20
g21
sbag1
(g8
g3
NtRp2369
(dp2370
g11
g12
sg13
S'Gillius ADF No2'
p2371
sg15
I400
sg16
g12
sg17
g12
sg18
V/usr/share/fonts/truetype/adf/GilliusADFNo2-Regular.otf
p2372
sg20
g21
sbag1
(g8
g3
NtRp2373
(dp2374
g11
g28
sg13
S'Latin Modern Sans'
p2375
sg15
I400
sg16
g12
sg17
g12
sg18
V/usr/share/texmf/fonts/opentype/public/lm/lmsans9-oblique.otf
p2376
sg20
g21
sbag1
(g8
g3
NtRp2377
(dp2378
g11
g28
sg13
S'TlwgMono'
p2379
sg15
I700
sg16
g12
sg17
g12
sg18
V/usr/share/fonts/truetype/tlwg/TlwgMono-BoldOblique.ttf
p2380
sg20
g21
sbag1
(g8
g3
NtRp2381
(dp2382
g11
g12
sg13
S'GFS Didot Classic'
p2383
sg15
I400
sg16
g12
sg17
g12
sg18
V/usr/share/fonts/truetype/didot-classic/GFSDidotClassic.otf
p2384
sg20
g21
sbag1
(g8
g3
NtRp2385
(dp2386
g11
g41
sg13
S'Linux Biolinum O'
p2387
sg15
I400
sg16
g12
sg17
g12
sg18
V/usr/share/fonts/opentype/linux-libertine/LinBiolinum_RI.otf
p2388
sg20
g21
sbag1
(g8
g3
NtRp2389
(dp2390
g11
g12
sg13
S'Linux Biolinum O'
p2391
sg15
I700
sg16
g12
sg17
g12
sg18
V/usr/share/fonts/opentype/linux-libertine/LinBiolinum_RB.otf
p2392
sg20
g21
sbag1
(g8
g3
NtRp2393
(dp2394
g11
g12
sg13
S'TeX Gyre Bonum'
p2395
sg15
I400
sg16
g12
sg17
g12
sg18
V/usr/share/texmf/fonts/opentype/public/tex-gyre/texgyrebonum-regular.otf
p2396
sg20
g21
sbag1
(g8
g3
NtRp2397
(dp2398
g11
g28
sg13
S'FreeSans'
p2399
sg15
I700
sg16
g12
sg17
g12
sg18
V/usr/share/fonts/opentype/freefont/FreeSansBoldOblique.otf
p2400
sg20
g21
sbag1
(g8
g3
NtRp2401
(dp2402
g11
g12
sg13
S'Padauk Book'
p2403
sg15
I400
sg16
g12
sg17
g12
sg18
V/usr/share/fonts/truetype/padauk/Padauk-book.ttf
p2404
sg20
g21
sbag1
(g8
g3
NtRp2405
(dp2406
g11
g12
sg13
S'KacstDigital'
p2407
sg15
I400
sg16
g12
sg17
g12
sg18
V/usr/share/fonts/truetype/kacst/KacstDigital.ttf
p2408
sg20
g21
sbag1
(g8
g3
NtRp2409
(dp2410
g11
g12
sg13
S'KacstOffice'
p2411
sg15
I400
sg16
g12
sg17
g12
sg18
V/usr/share/fonts/truetype/kacst/KacstOffice.ttf
p2412
sg20
g21
sbag1
(g8
g3
NtRp2413
(dp2414
g11
g12
sg13
S'Abyssinica SIL'
p2415
sg15
I400
sg16
g12
sg17
g12
sg18
V/usr/share/fonts/truetype/abyssinica/AbyssinicaSIL-R.ttf
p2416
sg20
g21
sbag1
(g8
g3
NtRp2417
(dp2418
g11
g41
sg13
S'FreeSerif'
p2419
sg15
I700
sg16
g12
sg17
g12
sg18
V/usr/share/fonts/opentype/freefont/FreeSerifBoldItalic.otf
p2420
sg20
g21
sbag1
(g8
g3
NtRp2421
(dp2422
g11
g12
sg13
S'STIXIntegralsUpD'
p2423
sg15
I700
sg16
g12
sg17
g12
sg18
V/usr/share/fonts/opentype/stix/STIXIntegralsUpD-Bold.otf
p2424
sg20
g21
sbag1
(g8
g3
NtRp2425
(dp2426
g11
g12
sg13
S'Loma'
p2427
sg15
I400
sg16
g12
sg17
g12
sg18
V/usr/share/fonts/truetype/tlwg/Loma.ttf
p2428
sg20
g21
sbag1
(g8
g3
NtRp2429
(dp2430
g11
g12
sg13
S'MathJax_Caligraphic'
p2431
sg15
I700
sg16
g12
sg17
g12
sg18
V/usr/share/fonts/opentype/mathjax/MathJax_Caligraphic-Bold.otf
p2432
sg20
g21
sbag1
(g8
g3
NtRp2433
(dp2434
g11
g28
sg13
S'Latin Modern Sans'
p2435
sg15
I400
sg16
g12
sg17
g12
sg18
V/usr/share/texmf/fonts/opentype/public/lm/lmsans17-oblique.otf
p2436
sg20
g21
sbag1
(g8
g3
NtRp2437
(dp2438
g11
g28
sg13
S'Tlwg Typo'
p2439
sg15
I700
sg16
g12
sg17
g12
sg18
V/usr/share/fonts/truetype/tlwg/TlwgTypo-BoldOblique.ttf
p2440
sg20
g21
sbag1
(g8
g3
NtRp2441
(dp2442
g11
g12
sg13
S'FreeMono'
p2443
sg15
I700
sg16
g12
sg17
g12
sg18
V/usr/share/fonts/opentype/freefont/FreeMonoBold.otf
p2444
sg20
g21
sbag1
(g8
g3
NtRp2445
(dp2446
g11
g12
sg13
S'KacstTitleL'
p2447
sg15
I400
sg16
g12
sg17
g12
sg18
V/usr/share/fonts/truetype/kacst/KacstTitleL.ttf
p2448
sg20
g21
sbag1
(g8
g3
NtRp2449
(dp2450
g11
g41
sg13
S'MathJax_Math'
p2451
sg15
I700
sg16
g12
sg17
g12
sg18
V/usr/share/fonts/opentype/mathjax/MathJax_Math-BoldItalic.otf
p2452
sg20
g21
sbag1
(g8
g3
NtRp2453
(dp2454
g11
g12
sg13
S'Times New Roman'
p2455
sg15
I700
sg16
g12
sg17
g12
sg18
V/usr/share/fonts/truetype/msttcorefonts/Times_New_Roman_Bold.ttf
p2456
sg20
g21
sbag1
(g8
g3
NtRp2457
(dp2458
g11
g12
sg13
S'Droid Sans Hebrew'
p2459
sg15
I400
sg16
g12
sg17
g12
sg18
V/usr/share/fonts/truetype/droid/DroidSansHebrew-Regular.ttf
p2460
sg20
g21
sbasS'defaultFamily'
p2461
(dp2462
Vafm
p2463
VHelvetica
p2464
sVttf
p2465
VBitstream Vera Sans
p2466
ssS'ttffiles'
p2467
(lp2468
g19
ag25
ag30
ag34
ag38
ag43
ag47
ag51
ag55
ag59
ag63
ag67
ag71
ag75
ag79
ag83
ag87
ag91
ag95
ag99
ag103
ag107
ag111
ag115
ag119
ag123
ag127
ag131
ag135
ag139
ag143
ag147
ag151
ag155
ag159
ag163
ag167
ag171
ag175
ag179
ag183
ag187
ag191
ag195
ag199
ag203
ag207
ag211
ag215
ag219
ag223
ag227
ag231
ag235
ag239
ag243
ag247
ag251
ag255
ag259
ag263
ag267
ag271
ag276
ag280
ag284
ag288
ag292
ag296
ag300
ag304
ag308
ag312
ag316
ag320
ag324
ag328
ag332
ag336
ag340
ag344
ag348
ag352
ag356
ag360
ag364
ag368
ag372
ag376
ag380
ag384
ag388
ag392
ag396
ag400
ag404
ag408
ag412
ag416
ag420
ag424
ag428
ag432
ag436
ag440
ag444
ag448
ag452
ag456
ag460
ag464
ag468
ag472
ag476
ag480
ag484
ag488
ag492
ag496
ag500
ag504
ag508
ag512
ag516
ag520
ag524
ag528
ag532
ag536
ag540
ag544
ag548
ag552
ag556
aV/usr/share/fonts/truetype/lyx/cmsy10.ttf
p2469
ag560
ag564
ag568
ag572
ag576
ag580
ag584
ag588
ag592
ag596
ag600
ag604
ag608
ag612
ag616
ag620
ag624
ag628
ag632
ag636
ag640
aV/usr/share/fonts/truetype/liberation/LiberationSerif-Regular.ttf
p2470
ag644
ag648
ag652
ag656
ag660
ag664
ag668
ag672
ag676
ag680
ag684
ag688
aV/usr/share/fonts/truetype/lyx/cmmi10.ttf
p2471
ag692
ag696
ag700
ag704
ag708
ag712
ag716
ag720
ag724
ag728
ag732
ag736
ag740
ag744
ag748
ag752
ag756
ag760
ag764
ag768
ag772
ag776
ag780
ag784
ag788
ag792
aV/usr/share/fonts/truetype/ttf-liberation/LiberationSans-Italic.ttf
p2472
ag796
ag800
ag804
ag808
ag812
ag816
ag820
ag824
ag828
ag832
ag836
ag840
ag844
ag848
ag852
ag856
ag860
ag864
ag868
ag872
ag876
ag880
aV/usr/share/fonts/truetype/liberation/LiberationSerif-Bold.ttf
p2473
ag884
ag888
ag892
aV/usr/share/fonts/truetype/ttf-liberation/LiberationSerif-BoldItalic.ttf
p2474
ag896
ag900
ag904
ag908
ag912
ag916
ag920
ag924
ag928
ag932
ag936
ag940
ag944
ag948
ag952
ag956
ag960
ag964
ag968
ag972
ag976
ag980
ag984
ag988
ag992
ag996
ag1000
ag1004
ag1008
ag1012
ag1016
ag1020
ag1024
ag1028
ag1032
ag1036
ag1040
ag1044
ag1048
ag1052
ag1056
ag1060
ag1064
ag1068
ag1072
ag1076
ag1080
ag1084
ag1088
ag1092
ag1096
ag1100
ag1104
ag1108
ag1112
ag1116
ag1120
ag1124
ag1128
ag1132
ag1136
ag1140
ag1144
ag1148
ag1152
ag1156
ag1160
ag1164
ag1168
ag1172
ag1176
ag1180
ag1184
ag1188
ag1192
ag1196
ag1200
ag1204
ag1208
ag1212
ag1216
ag1220
ag1224
ag1228
ag1232
ag1236
ag1240
ag1244
ag1248
ag1252
ag1256
ag1260
ag1264
ag1268
ag1272
ag1276
ag1280
ag1284
ag1288
ag1292
ag1296
aV/usr/share/fonts/truetype/ttf-liberation/LiberationSansNarrow-Regular.ttf
p2475
ag1300
ag1304
ag1308
ag1312
ag1316
ag1320
ag1324
ag1328
ag1332
ag1336
ag1340
ag1344
ag1348
ag1352
ag1356
ag1360
ag1364
ag1368
ag1372
ag1376
ag1380
ag1384
ag1388
ag1392
ag1396
ag1400
ag1404
ag1408
ag1412
ag1416
ag1420
ag1424
ag1428
ag1432
ag1436
ag1440
ag1444
ag1448
ag1452
ag1456
ag1460
ag1464
ag1468
ag1472
ag1476
ag1480
ag1484
ag1488
ag1492
ag1496
ag1500
ag1504
ag1508
ag1512
aV/usr/share/fonts/truetype/ttf-liberation/LiberationSans-BoldItalic.ttf
p2476
ag1516
ag1520
ag1524
ag1528
ag1532
ag1536
ag1540
ag1544
aV/usr/share/fonts/truetype/ttf-dejavu/DejaVuSans-Bold.ttf
p2477
ag1548
ag1552
ag1556
ag1560
ag1564
ag1568
ag1572
ag1576
ag1580
ag1584
ag1588
ag1592
ag1596
ag1600
ag1604
ag1608
ag1612
ag1616
ag1620
ag1624
ag1628
ag1632
ag1636
ag1640
ag1644
ag1648
ag1652
ag1656
ag1660
ag1664
ag1668
ag1672
ag1676
ag1680
ag1684
ag1688
ag1692
ag1696
ag1700
ag1704
ag1708
ag1712
ag1716
ag1720
ag1724
ag1728
ag1732
ag1736
ag1740
ag1744
ag1748
aV/usr/share/fonts/truetype/liberation/LiberationSans-Regular.ttf
p2478
ag1752
ag1756
ag1760
ag1764
ag1768
ag1772
ag1776
ag1780
ag1784
ag1788
ag1792
ag1796
ag1800
aV/usr/share/fonts/truetype/dejavu/DejaVuSerif-Bold.ttf
p2479
ag1804
ag1808
ag1812
ag1816
ag1820
ag1824
ag1828
ag1832
ag1836
ag1840
ag1844
ag1848
aV/usr/share/fonts/truetype/lyx/cmex10.ttf
p2480
ag1852
ag1856
ag1860
ag1864
ag1868
ag1872
ag1876
ag1880
ag1884
ag1888
ag1892
ag1896
ag1900
ag1904
ag1908
ag1912
ag1916
aV/usr/share/fonts/truetype/liberation/LiberationSansNarrow-Italic.ttf
p2481
ag1920
aV/usr/share/fonts/truetype/lyx/cmr10.ttf
p2482
ag1924
ag1928
ag1932
ag1936
ag1940
ag1944
ag1948
aV/usr/share/fonts/truetype/ttf-liberation/LiberationMono-Bold.ttf
p2483
ag1952
ag1956
ag1960
ag1964
ag1968
ag1972
ag1976
ag1980
ag1984
ag1988
ag1992
aV/usr/share/fonts/truetype/ttf-liberation/LiberationMono-Italic.ttf
p2484
ag1996
aV/usr/share/fonts/truetype/ttf-dejavu/DejaVuSerif.ttf
p2485
ag2000
ag2004
ag2008
ag2012
ag2016
ag2020
aV/usr/share/fonts/truetype/liberation/LiberationMono-Regular.ttf
p2486
ag2024
ag2028
ag2032
ag2036
ag2040
ag2044
ag2048
ag2052
ag2056
ag2060
ag2064
ag2068
ag2072
ag2076
ag2080
ag2084
ag2088
ag2092
ag2096
ag2100
ag2104
ag2108
ag2112
ag2116
ag2120
ag2124
aV/usr/share/fonts/truetype/ttf-liberation/LiberationSansNarrow-BoldItalic.ttf
p2487
ag2128
ag2132
ag2136
ag2140
ag2144
aV/usr/share/fonts/truetype/ttf-dejavu/DejaVuSans.ttf
p2488
ag2148
aV/usr/share/fonts/truetype/liberation/LiberationSansNarrow-Bold.ttf
p2489
ag2152
ag2156
ag2160
ag2164
ag2168
ag2172
ag2176
ag2180
ag2184
ag2188
ag2192
ag2196
ag2200
ag2204
aV/usr/share/fonts/truetype/dejavu/DejaVuSansMono.ttf
p2490
ag2208
ag2212
ag2216
ag2220
ag2224
ag2228
ag2232
ag2236
ag2240
ag2244
ag2248
ag2252
ag2256
ag2260
ag2264
ag2268
ag2272
ag2276
ag2280
aV/usr/share/fonts/truetype/liberation/LiberationSerif-Italic.ttf
p2491
ag2284
ag2288
ag2292
aV/usr/share/fonts/truetype/ttf-dejavu/DejaVuSansMono-Bold.ttf
p2492
ag2296
ag2300
ag2304
ag2308
ag2312
ag2316
ag2320
ag2324
ag2328
ag2332
ag2336
ag2340
ag2344
ag2348
ag2352
ag2356
ag2360
ag2364
ag2368
ag2372
aV/usr/share/fonts/truetype/ttf-liberation/LiberationSans-Bold.ttf
p2493
ag2376
ag2380
ag2384
ag2388
ag2392
ag2396
ag2400
ag2404
ag2408
aV/usr/share/fonts/truetype/ttf-liberation/LiberationMono-BoldItalic.ttf
p2494
ag2412
ag2416
ag2420
ag2424
ag2428
ag2432
ag2436
ag2440
ag2444
ag2448
ag2452
ag2456
ag2460
asS'_FontManager__default_weight'
p2495
Vnormal
p2496
sS'_version'
p2497
I101
sS'default_size'
p2498
NsS'defaultFont'
p2499
(dp2500
g2463
V/home/renato/intel/intelpython27/lib/python2.7/site-packages/matplotlib/mpl-data/fonts/afm/phvro8a.afm
p2501
sg2465
g55
ssS'afmfiles'
p2502
(lp2503
g2501
aV/home/renato/intel/intelpython27/lib/python2.7/site-packages/matplotlib/mpl-data/fonts/afm/phvbo8a.afm
p2504
aV/home/renato/intel/intelpython27/lib/python2.7/site-packages/matplotlib/mpl-data/fonts/afm/phvr8an.afm
p2505
aV/home/renato/intel/intelpython27/lib/python2.7/site-packages/matplotlib/mpl-data/fonts/afm/pncr8a.afm
p2506
aV/home/renato/intel/intelpython27/lib/python2.7/site-packages/matplotlib/mpl-data/fonts/afm/pcrr8a.afm
p2507
aV/home/renato/intel/intelpython27/lib/python2.7/site-packages/matplotlib/mpl-data/fonts/afm/putr8a.afm
p2508
aV/home/renato/intel/intelpython27/lib/python2.7/site-packages/matplotlib/mpl-data/fonts/afm/pagdo8a.afm
p2509
aV/home/renato/intel/intelpython27/lib/python2.7/site-packages/matplotlib/mpl-data/fonts/afm/pplb8a.afm
p2510
aV/home/renato/intel/intelpython27/lib/python2.7/site-packages/matplotlib/mpl-data/fonts/afm/ptmri8a.afm
p2511
aV/home/renato/intel/intelpython27/lib/python2.7/site-packages/matplotlib/mpl-data/fonts/afm/phvlo8a.afm
p2512
aV/home/renato/intel/intelpython27/lib/python2.7/site-packages/matplotlib/mpl-data/fonts/afm/phvbo8an.afm
p2513
aV/home/renato/intel/intelpython27/lib/python2.7/site-packages/matplotlib/mpl-data/fonts/afm/pagko8a.afm
p2514
aV/home/renato/intel/intelpython27/lib/python2.7/site-packages/matplotlib/mpl-data/fonts/afm/pcrro8a.afm
p2515
aV/home/renato/intel/intelpython27/lib/python2.7/site-packages/matplotlib/mpl-data/fonts/afm/phvl8a.afm
p2516
aV/home/renato/intel/intelpython27/lib/python2.7/site-packages/matplotlib/mpl-data/fonts/afm/ptmbi8a.afm
p2517
aV/home/renato/intel/intelpython27/lib/python2.7/site-packages/matplotlib/mpl-data/fonts/pdfcorefonts/Courier-Bold.afm
p2518
aV/home/renato/intel/intelpython27/lib/python2.7/site-packages/matplotlib/mpl-data/fonts/afm/pncri8a.afm
p2519
aV/home/renato/intel/intelpython27/lib/python2.7/site-packages/matplotlib/mpl-data/fonts/afm/putri8a.afm
p2520
aV/home/renato/intel/intelpython27/lib/python2.7/site-packages/matplotlib/mpl-data/fonts/pdfcorefonts/Times-Roman.afm
p2521
aV/home/renato/intel/intelpython27/lib/python2.7/site-packages/matplotlib/mpl-data/fonts/afm/phvb8an.afm
p2522
aV/home/renato/intel/intelpython27/lib/python2.7/site-packages/matplotlib/mpl-data/fonts/afm/phvb8a.afm
p2523
aV/home/renato/intel/intelpython27/lib/python2.7/site-packages/matplotlib/mpl-data/fonts/afm/pncb8a.afm
p2524
aV/home/renato/intel/intelpython27/lib/python2.7/site-packages/matplotlib/mpl-data/fonts/afm/putbi8a.afm
p2525
aV/home/renato/intel/intelpython27/lib/python2.7/site-packages/matplotlib/mpl-data/fonts/afm/pzdr.afm
p2526
aV/home/renato/intel/intelpython27/lib/python2.7/site-packages/matplotlib/mpl-data/fonts/pdfcorefonts/Helvetica-Bold.afm
p2527
aV/home/renato/intel/intelpython27/lib/python2.7/site-packages/matplotlib/mpl-data/fonts/pdfcorefonts/Helvetica-BoldOblique.afm
p2528
aV/home/renato/intel/intelpython27/lib/python2.7/site-packages/matplotlib/mpl-data/fonts/afm/pagk8a.afm
p2529
aV/home/renato/intel/intelpython27/lib/python2.7/site-packages/matplotlib/mpl-data/fonts/afm/pplri8a.afm
p2530
aV/home/renato/intel/intelpython27/lib/python2.7/site-packages/matplotlib/mpl-data/fonts/afm/cmex10.afm
p2531
aV/home/renato/intel/intelpython27/lib/python2.7/site-packages/matplotlib/mpl-data/fonts/pdfcorefonts/Courier-BoldOblique.afm
p2532
aV/home/renato/intel/intelpython27/lib/python2.7/site-packages/matplotlib/mpl-data/fonts/pdfcorefonts/Courier.afm
p2533
aV/home/renato/intel/intelpython27/lib/python2.7/site-packages/matplotlib/mpl-data/fonts/afm/phvro8an.afm
p2534
aV/home/renato/intel/intelpython27/lib/python2.7/site-packages/matplotlib/mpl-data/fonts/pdfcorefonts/Times-Italic.afm
p2535
aV/home/renato/intel/intelpython27/lib/python2.7/site-packages/matplotlib/mpl-data/fonts/pdfcorefonts/ZapfDingbats.afm
p2536
aV/home/renato/intel/intelpython27/lib/python2.7/site-packages/matplotlib/mpl-data/fonts/pdfcorefonts/Helvetica-Oblique.afm
p2537
aV/home/renato/intel/intelpython27/lib/python2.7/site-packages/matplotlib/mpl-data/fonts/pdfcorefonts/Courier-Oblique.afm
p2538
aV/home/renato/intel/intelpython27/lib/python2.7/site-packages/matplotlib/mpl-data/fonts/afm/pplbi8a.afm
p2539
aV/home/renato/intel/intelpython27/lib/python2.7/site-packages/matplotlib/mpl-data/fonts/afm/cmr10.afm
p2540
aV/home/renato/intel/intelpython27/lib/python2.7/site-packages/matplotlib/mpl-data/fonts/afm/psyr.afm
p2541
aV/home/renato/intel/intelpython27/lib/python2.7/site-packages/matplotlib/mpl-data/fonts/afm/cmsy10.afm
p2542
aV/home/renato/intel/intelpython27/lib/python2.7/site-packages/matplotlib/mpl-data/fonts/afm/pcrb8a.afm
p2543
aV/home/renato/intel/intelpython27/lib/python2.7/site-packages/matplotlib/mpl-data/fonts/afm/ptmb8a.afm
p2544
aV/home/renato/intel/intelpython27/lib/python2.7/site-packages/matplotlib/mpl-data/fonts/afm/putb8a.afm
p2545
aV/home/renato/intel/intelpython27/lib/python2.7/site-packages/matplotlib/mpl-data/fonts/afm/cmmi10.afm
p2546
aV/home/renato/intel/intelpython27/lib/python2.7/site-packages/matplotlib/mpl-data/fonts/afm/pplr8a.afm
p2547
aV/home/renato/intel/intelpython27/lib/python2.7/site-packages/matplotlib/mpl-data/fonts/pdfcorefonts/Symbol.afm
p2548
aV/home/renato/intel/intelpython27/lib/python2.7/site-packages/matplotlib/mpl-data/fonts/afm/phvr8a.afm
p2549
aV/home/renato/intel/intelpython27/lib/python2.7/site-packages/matplotlib/mpl-data/fonts/pdfcorefonts/Times-Bold.afm
p2550
aV/home/renato/intel/intelpython27/lib/python2.7/site-packages/matplotlib/mpl-data/fonts/afm/ptmr8a.afm
p2551
aV/home/renato/intel/intelpython27/lib/python2.7/site-packages/matplotlib/mpl-data/fonts/afm/pbkli8a.afm
p2552
aV/home/renato/intel/intelpython27/lib/python2.7/site-packages/matplotlib/mpl-data/fonts/afm/pzcmi8a.afm
p2553
aV/home/renato/intel/intelpython27/lib/python2.7/site-packages/matplotlib/mpl-data/fonts/afm/pcrbo8a.afm
p2554
aV/home/renato/intel/intelpython27/lib/python2.7/site-packages/matplotlib/mpl-data/fonts/afm/cmtt10.afm
p2555
aV/home/renato/intel/intelpython27/lib/python2.7/site-packages/matplotlib/mpl-data/fonts/pdfcorefonts/Helvetica.afm
p2556
aV/home/renato/intel/intelpython27/lib/python2.7/site-packages/matplotlib/mpl-data/fonts/pdfcorefonts/Times-BoldItalic.afm
p2557
aV/home/renato/intel/intelpython27/lib/python2.7/site-packages/matplotlib/mpl-data/fonts/afm/pbkl8a.afm
p2558
aV/home/renato/intel/intelpython27/lib/python2.7/site-packages/matplotlib/mpl-data/fonts/afm/pagd8a.afm
p2559
aV/home/renato/intel/intelpython27/lib/python2.7/site-packages/matplotlib/mpl-data/fonts/afm/pbkdi8a.afm
p2560
aV/home/renato/intel/intelpython27/lib/python2.7/site-packages/matplotlib/mpl-data/fonts/afm/pncbi8a.afm
p2561
aV/home/renato/intel/intelpython27/lib/python2.7/site-packages/matplotlib/mpl-data/fonts/afm/pbkd8a.afm
p2562
aV/usr/share/fonts/X11/Type1/lmtt10.afm
p2563
aV/usr/share/fonts/type1/gsfonts/p052004l.afm
p2564
aV/usr/share/fonts/X11/Type1/lmssqo8.afm
p2565
aV/usr/share/fonts/type1/gsfonts/n019064l.afm
p2566
aV/usr/share/fonts/type1/gsfonts/b018015l.afm
p2567
aV/usr/share/fonts/X11/Type1/lmbxo10.afm
p2568
aV/usr/share/fonts/type1/gsfonts/c059036l.afm
p2569
aV/usr/share/fonts/type1/texlive-fonts-recommended/uplbi8a.afm
p2570
aV/usr/share/fonts/type1/gsfonts/n022024l.afm
p2571
aV/usr/share/fonts/X11/Type1/lmtlc10.afm
p2572
aV/usr/share/fonts/X11/Type1/Symbol.afm
p2573
aV/usr/share/fonts/X11/Type1/lmtk10.afm
p2574
aV/usr/share/fonts/X11/Type1/qbkr.afm
p2575
aV/usr/share/fonts/X11/Type1/lmdunh10.afm
p2576
aV/usr/share/fonts/type1/gsfonts/n019003l.afm
p2577
aV/usr/share/fonts/X11/Type1/lmduno10.afm
p2578
aV/usr/share/fonts/type1/texlive-fonts-recommended/ucrro8a.afm
p2579
aV/usr/share/fonts/type1/texlive-fonts-recommended/ubkli8a.afm
p2580
aV/usr/share/fonts/type1/texlive-fonts-recommended/uhvbo8ac.afm
p2581
aV/usr/share/fonts/type1/texlive-fonts-recommended/uagk8a.afm
p2582
aV/usr/share/fonts/type1/texlive-fonts-recommended/uhvro8a.afm
p2583
aV/usr/share/fonts/X11/Type1/qcrr.afm
p2584
aV/usr/share/fonts/type1/texlive-fonts-recommended/ubkdi8a.afm
p2585
aV/usr/share/fonts/type1/texlive-fonts-recommended/pcrro8a.afm
p2586
aV/usr/share/fonts/type1/texlive-fonts-recommended/uncb8a.afm
p2587
aV/usr/share/fonts/X11/Type1/lmro10.afm
p2588
aV/usr/share/fonts/type1/texlive-fonts-recommended/putri8a.afm
p2589
aV/usr/share/fonts/X11/Type1/qhvcb.afm
p2590
aV/usr/share/fonts/X11/Type1/qtmb.afm
p2591
aV/usr/share/fonts/X11/Type1/lmvtlo10.afm
p2592
aV/usr/share/fonts/X11/Type1/lmtcso10.afm
p2593
aV/usr/share/fonts/X11/Type1/lmtti10.afm
p2594
aV/usr/share/fonts/X11/Type1/c0419bt_.afm
p2595
aV/usr/share/fonts/type1/gsfonts/n021024l.afm
p2596
aV/usr/share/fonts/type1/gsfonts/n019024l.afm
p2597
aV/usr/share/fonts/X11/Type1/qhvbi.afm
p2598
aV/usr/share/fonts/X11/Type1/qcsb.afm
p2599
aV/usr/share/fonts/X11/Type1/lmbx10.afm
p2600
aV/usr/share/fonts/type1/gsfonts/d050000l.afm
p2601
aV/usr/share/fonts/X11/Type1/lmb10.afm
p2602
aV/usr/share/fonts/X11/Type1/lmssqbx8.afm
p2603
aV/usr/share/fonts/X11/Type1/qhvb.afm
p2604
aV/usr/share/fonts/X11/Type1/c0649bt_.afm
p2605
aV/usr/share/fonts/type1/texlive-fonts-recommended/ucrr8a.afm
p2606
aV/usr/share/fonts/type1/gsfonts/n019044l.afm
p2607
aV/usr/share/fonts/type1/gsfonts/z003034l.afm
p2608
aV/usr/share/fonts/X11/Type1/qhvr.afm
p2609
aV/usr/share/fonts/X11/Type1/lmbxi10.afm
p2610
aV/usr/share/fonts/X11/Type1/lmcsco10.afm
p2611
aV/usr/share/fonts/type1/texlive-fonts-recommended/putr8a.afm
p2612
aV/usr/share/fonts/type1/texlive-fonts-recommended/uzcmi8a.afm
p2613
aV/usr/share/fonts/X11/Type1/qagri.afm
p2614
aV/usr/share/fonts/X11/Type1/qplr.afm
p2615
aV/usr/share/fonts/type1/texlive-fonts-recommended/uhvbo8a.afm
p2616
aV/usr/share/fonts/X11/Type1/qcsr.afm
p2617
aV/usr/share/fonts/X11/Type1/qbkbi.afm
p2618
aV/usr/share/fonts/type1/texlive-fonts-recommended/utmri8a.afm
p2619
aV/usr/share/fonts/type1/gsfonts/a010013l.afm
p2620
aV/usr/share/fonts/X11/Type1/c0583bt_.afm
p2621
aV/usr/share/fonts/type1/texlive-fonts-recommended/ucrb8a.afm
p2622
aV/usr/share/fonts/type1/texlive-fonts-recommended/ucrbo8a.afm
p2623
aV/usr/share/fonts/type1/texlive-fonts-recommended/uplri8a.afm
p2624
aV/usr/share/fonts/type1/texlive-fonts-recommended/bchbi8a.afm
p2625
aV/usr/share/fonts/X11/Type1/lmcsc10.afm
p2626
aV/usr/share/fonts/X11/Type1/qagbi.afm
p2627
aV/usr/share/fonts/type1/gsfonts/n019063l.afm
p2628
aV/usr/share/fonts/X11/Type1/qcrbi.afm
p2629
aV/usr/share/fonts/X11/Type1/qcrb.afm
p2630
aV/usr/share/fonts/X11/Type1/lmssqbo8.afm
p2631
aV/usr/share/fonts/type1/gsfonts/p052003l.afm
p2632
aV/usr/share/fonts/type1/gsfonts/b018032l.afm
p2633
aV/usr/share/fonts/X11/Type1/lmvtk10.afm
p2634
aV/usr/share/fonts/type1/gsfonts/n021023l.afm
p2635
aV/usr/share/fonts/X11/Type1/qhvri.afm
p2636
aV/usr/share/fonts/X11/Type1/lmtlo10.afm
p2637
aV/usr/share/fonts/X11/Type1/lmvtl10.afm
p2638
aV/usr/share/fonts/type1/gsfonts/n021003l.afm
p2639
aV/usr/share/fonts/X11/Type1/qzcmi.afm
p2640
aV/usr/share/fonts/type1/gsfonts/s050000l.afm
p2641
aV/usr/share/fonts/type1/gsfonts/n021004l.afm
p2642
aV/usr/share/fonts/type1/gsfonts/p052024l.afm
p2643
aV/usr/share/fonts/X11/Type1/qtmri.afm
p2644
aV/usr/share/fonts/type1/texlive-fonts-recommended/uncr8a.afm
p2645
aV/usr/share/fonts/X11/Type1/qbkb.afm
p2646
aV/usr/share/fonts/X11/Type1/qcsri.afm
p2647
aV/usr/share/fonts/type1/gsfonts/c059013l.afm
p2648
aV/usr/share/fonts/X11/Type1/qtmr.afm
p2649
aV/usr/share/fonts/X11/Type1/lmtcsc10.afm
p2650
aV/usr/share/fonts/type1/texlive-fonts-recommended/putb8a.afm
p2651
aV/usr/share/fonts/X11/Type1/qagb.afm
p2652
aV/usr/share/fonts/X11/Type1/c0633bt_.afm
p2653
aV/usr/share/fonts/X11/Type1/lmvtto10.afm
p2654
aV/usr/share/fonts/X11/Type1/c0611bt_.afm
p2655
aV/usr/share/fonts/type1/texlive-fonts-recommended/pcrbo8a.afm
p2656
aV/usr/share/fonts/X11/Type1/lmss10.afm
p2657
aV/usr/share/fonts/X11/Type1/lmvtt10.afm
p2658
aV/usr/share/fonts/type1/gsfonts/b018035l.afm
p2659
aV/usr/share/fonts/type1/texlive-fonts-recommended/putbi8a.afm
p2660
aV/usr/share/fonts/X11/Type1/qtmbi.afm
p2661
aV/usr/share/fonts/X11/Type1/qcsbi.afm
p2662
aV/usr/share/fonts/type1/texlive-fonts-recommended/pcrb8a.afm
p2663
aV/usr/share/fonts/X11/Type1/lmssdo10.afm
p2664
aV/usr/share/fonts/type1/gsfonts/n022004l.afm
p2665
aV/usr/share/fonts/type1/mathml/Symbol.afm
p2666
aV/usr/share/fonts/X11/Type1/qhvcbi.afm
p2667
aV/usr/share/fonts/type1/texlive-fonts-recommended/utmbi8a.afm
p2668
aV/usr/share/fonts/type1/texlive-fonts-recommended/uhvr8ac.afm
p2669
aV/usr/share/fonts/type1/texlive-fonts-recommended/uagd8a.afm
p2670
aV/usr/share/fonts/X11/Type1/lmri10.afm
p2671
aV/usr/share/fonts/type1/gsfonts/n019004l.afm
p2672
aV/usr/share/fonts/X11/Type1/lmr10.afm
p2673
aV/usr/share/fonts/type1/gsfonts/a010015l.afm
p2674
aV/usr/share/fonts/type1/texlive-fonts-recommended/uncri8a.afm
p2675
aV/usr/share/fonts/X11/Type1/lmtl10.afm
p2676
aV/usr/share/fonts/type1/texlive-fonts-recommended/usyr.afm
p2677
aV/usr/share/fonts/type1/texlive-fonts-recommended/uhvr8a.afm
p2678
aV/usr/share/fonts/X11/Type1/qplri.afm
p2679
aV/usr/share/fonts/type1/texlive-fonts-recommended/ubkl8a.afm
p2680
aV/usr/share/fonts/X11/Type1/qhvcr.afm
p2681
aV/usr/share/fonts/X11/Type1/lmtlco10.afm
p2682
aV/usr/share/fonts/X11/Type1/lmtto10.afm
p2683
aV/usr/share/fonts/X11/Type1/qplb.afm
p2684
aV/usr/share/fonts/X11/Type1/c0648bt_.afm
p2685
aV/usr/share/fonts/type1/gsfonts/n022003l.afm
p2686
aV/usr/share/fonts/type1/gsfonts/a010033l.afm
p2687
aV/usr/share/fonts/X11/Type1/lmvtko10.afm
p2688
aV/usr/share/fonts/type1/texlive-fonts-recommended/bchri8a.afm
p2689
aV/usr/share/fonts/type1/texlive-fonts-recommended/bchb8a.afm
p2690
aV/usr/share/fonts/type1/gsfonts/n019043l.afm
p2691
aV/usr/share/fonts/type1/texlive-fonts-recommended/uplb8a.afm
p2692
aV/usr/share/fonts/X11/Type1/qcrri.afm
p2693
aV/usr/share/fonts/X11/Type1/lmssbx10.afm
p2694
aV/usr/share/fonts/type1/texlive-fonts-recommended/uhvro8ac.afm
p2695
aV/usr/share/fonts/type1/texlive-fonts-recommended/ubkd8a.afm
p2696
aV/usr/share/fonts/type1/texlive-fonts-recommended/uagko8a.afm
p2697
aV/usr/share/fonts/type1/texlive-fonts-recommended/uplr8a.afm
p2698
aV/usr/share/fonts/type1/texlive-fonts-recommended/uhvb8ac.afm
p2699
aV/usr/share/fonts/X11/Type1/c0582bt_.afm
p2700
aV/usr/share/fonts/type1/texlive-fonts-recommended/utmb8a.afm
p2701
aV/usr/share/fonts/type1/texlive-fonts-recommended/uhvb8a.afm
p2702
aV/usr/share/fonts/X11/Type1/lmssq8.afm
p2703
aV/usr/share/fonts/X11/Type1/lmssbo10.afm
p2704
aV/usr/share/fonts/type1/texlive-fonts-recommended/pcrr8a.afm
p2705
aV/usr/share/fonts/X11/Type1/qagr.afm
p2706
aV/usr/share/fonts/type1/gsfonts/c059033l.afm
p2707
aV/usr/share/fonts/type1/texlive-fonts-recommended/utmr8a.afm
p2708
aV/usr/share/fonts/type1/texlive-fonts-recommended/bchr8a.afm
p2709
aV/usr/share/fonts/type1/gsfonts/n019023l.afm
p2710
aV/usr/share/fonts/type1/gsfonts/b018012l.afm
p2711
aV/usr/share/fonts/X11/Type1/lmtko10.afm
p2712
aV/usr/share/fonts/type1/texlive-fonts-recommended/uncbi8a.afm
p2713
aV/usr/share/fonts/X11/Type1/lmsso10.afm
p2714
aV/usr/share/fonts/X11/Type1/lmbo10.afm
p2715
aV/usr/share/fonts/type1/gsfonts/p052023l.afm
p2716
aV/usr/share/fonts/X11/Type1/qplbi.afm
p2717
aV/usr/share/fonts/type1/texlive-fonts-recommended/uagdo8a.afm
p2718
aV/usr/share/fonts/X11/Type1/lmssdc10.afm
p2719
aV/usr/share/fonts/type1/gsfonts/c059016l.afm
p2720
aV/usr/share/fonts/type1/gsfonts/n022023l.afm
p2721
aV/usr/share/fonts/X11/Type1/qhvcri.afm
p2722
aV/usr/share/fonts/type1/gsfonts/a010035l.afm
p2723
aV/usr/share/fonts/X11/Type1/qbkri.afm
p2724
aV/usr/share/fonts/type1/texlive-fonts-recommended/uzdr.afm
p2725
aV/usr/share/fonts/X11/Type1/c0632bt_.afm
p2726
aV/usr/share/fonts/X11/Type1/lmu10.afm
p2727
asS'afmlist'
p2728
(lp2729
g1
(g8
g3
NtRp2730
(dp2731
g11
Vitalic
p2732
sg13
S'Helvetica'
p2733
sg15
I500
sg16
Vnormal
p2734
sg17
g2734
sg18
g2501
sg20
Vscalable
p2735
sbag1
(g8
g3
NtRp2736
(dp2737
g11
g2732
sg13
S'Helvetica'
p2738
sg15
I700
sg16
g2734
sg17
g2734
sg18
g2504
sg20
g2735
sbag1
(g8
g3
NtRp2739
(dp2740
g11
g2734
sg13
S'Helvetica'
p2741
sg15
I500
sg16
Vcondensed
p2742
sg17
g2734
sg18
g2505
sg20
g2735
sbag1
(g8
g3
NtRp2743
(dp2744
g11
g2734
sg13
S'New Century Schoolbook'
p2745
sg15
I500
sg16
g2734
sg17
g2734
sg18
g2506
sg20
g2735
sbag1
(g8
g3
NtRp2746
(dp2747
g11
g2734
sg13
S'Courier'
p2748
sg15
I500
sg16
g2734
sg17
g2734
sg18
g2507
sg20
g2735
sbag1
(g8
g3
NtRp2749
(dp2750
g11
g2734
sg13
S'Utopia'
p2751
sg15
I400
sg16
g2734
sg17
g2734
sg18
g2508
sg20
g2735
sbag1
(g8
g3
NtRp2752
(dp2753
g11
g2732
sg13
S'ITC Avant Garde Gothic'
p2754
sg15
I600
sg16
g2734
sg17
g2734
sg18
g2509
sg20
g2735
sbag1
(g8
g3
NtRp2755
(dp2756
g11
g2734
sg13
S'Palatino'
p2757
sg15
I700
sg16
g2734
sg17
g2734
sg18
g2510
sg20
g2735
sbag1
(g8
g3
NtRp2758
(dp2759
g11
g2732
sg13
S'Times'
p2760
sg15
I500
sg16
g2734
sg17
g2734
sg18
g2511
sg20
g2735
sbag1
(g8
g3
NtRp2761
(dp2762
g11
g2732
sg13
S'Helvetica'
p2763
sg15
I200
sg16
g2734
sg17
g2734
sg18
g2512
sg20
g2735
sbag1
(g8
g3
NtRp2764
(dp2765
g11
g2732
sg13
S'Helvetica'
p2766
sg15
I700
sg16
g2742
sg17
g2734
sg18
g2513
sg20
g2735
sbag1
(g8
g3
NtRp2767
(dp2768
g11
g2732
sg13
S'ITC Avant Garde Gothic'
p2769
sg15
I400
sg16
g2734
sg17
g2734
sg18
g2514
sg20
g2735
sbag1
(g8
g3
NtRp2770
(dp2771
g11
g2732
sg13
S'Courier'
p2772
sg15
I500
sg16
g2734
sg17
g2734
sg18
g2515
sg20
g2735
sbag1
(g8
g3
NtRp2773
(dp2774
g11
g2734
sg13
S'Helvetica'
p2775
sg15
I200
sg16
g2734
sg17
g2734
sg18
g2516
sg20
g2735
sbag1
(g8
g3
NtRp2776
(dp2777
g11
g2732
sg13
S'Times'
p2778
sg15
I700
sg16
g2734
sg17
g2734
sg18
g2517
sg20
g2735
sbag1
(g8
g3
NtRp2779
(dp2780
g11
g2734
sg13
S'Courier'
p2781
sg15
I700
sg16
g2734
sg17
g2734
sg18
g2518
sg20
g2735
sbag1
(g8
g3
NtRp2782
(dp2783
g11
g2732
sg13
S'New Century Schoolbook'
p2784
sg15
I500
sg16
g2734
sg17
g2734
sg18
g2519
sg20
g2735
sbag1
(g8
g3
NtRp2785
(dp2786
g11
g2732
sg13
S'Utopia'
p2787
sg15
I400
sg16
g2734
sg17
g2734
sg18
g2520
sg20
g2735
sbag1
(g8
g3
NtRp2788
(dp2789
g11
g2734
sg13
S'Times'
p2790
sg15
I500
sg16
g2734
sg17
g2734
sg18
g2521
sg20
g2735
sbag1
(g8
g3
NtRp2791
(dp2792
g11
g2734
sg13
S'Helvetica'
p2793
sg15
I700
sg16
g2742
sg17
g2734
sg18
g2522
sg20
g2735
sbag1
(g8
g3
NtRp2794
(dp2795
g11
g2734
sg13
S'Helvetica'
p2796
sg15
I700
sg16
g2734
sg17
g2734
sg18
g2523
sg20
g2735
sbag1
(g8
g3
NtRp2797
(dp2798
g11
g2734
sg13
S'New Century Schoolbook'
p2799
sg15
I700
sg16
g2734
sg17
g2734
sg18
g2524
sg20
g2735
sbag1
(g8
g3
NtRp2800
(dp2801
g11
g2732
sg13
S'Utopia'
p2802
sg15
I700
sg16
g2734
sg17
g2734
sg18
g2525
sg20
g2735
sbag1
(g8
g3
NtRp2803
(dp2804
g11
g2734
sg13
S'ITC Zapf Dingbats'
p2805
sg15
I500
sg16
g2734
sg17
g2734
sg18
g2526
sg20
g2735
sbag1
(g8
g3
NtRp2806
(dp2807
g11
g2734
sg13
S'Helvetica'
p2808
sg15
I700
sg16
g2734
sg17
g2734
sg18
g2527
sg20
g2735
sbag1
(g8
g3
NtRp2809
(dp2810
g11
g2732
sg13
S'Helvetica'
p2811
sg15
I700
sg16
g2734
sg17
g2734
sg18
g2528
sg20
g2735
sbag1
(g8
g3
NtRp2812
(dp2813
g11
g2734
sg13
S'ITC Avant Garde Gothic'
p2814
sg15
I400
sg16
g2734
sg17
g2734
sg18
g2529
sg20
g2735
sbag1
(g8
g3
NtRp2815
(dp2816
g11
g2732
sg13
S'Palatino'
p2817
sg15
I500
sg16
g2734
sg17
g2734
sg18
g2530
sg20
g2735
sbag1
(g8
g3
NtRp2818
(dp2819
g11
g2734
sg13
S'Computer Modern'
p2820
sg15
I500
sg16
g2734
sg17
g2734
sg18
g2531
sg20
g2735
sbag1
(g8
g3
NtRp2821
(dp2822
g11
g2732
sg13
S'Courier'
p2823
sg15
I700
sg16
g2734
sg17
g2734
sg18
g2532
sg20
g2735
sbag1
(g8
g3
NtRp2824
(dp2825
g11
g2734
sg13
S'Courier'
p2826
sg15
I500
sg16
g2734
sg17
g2734
sg18
g2533
sg20
g2735
sbag1
(g8
g3
NtRp2827
(dp2828
g11
g2732
sg13
S'Helvetica'
p2829
sg15
I500
sg16
g2742
sg17
g2734
sg18
g2534
sg20
g2735
sbag1
(g8
g3
NtRp2830
(dp2831
g11
g2732
sg13
S'Times'
p2832
sg15
I500
sg16
g2734
sg17
g2734
sg18
g2535
sg20
g2735
sbag1
(g8
g3
NtRp2833
(dp2834
g11
g2734
sg13
S'ZapfDingbats'
p2835
sg15
I500
sg16
g2734
sg17
g2734
sg18
g2536
sg20
g2735
sbag1
(g8
g3
NtRp2836
(dp2837
g11
g2732
sg13
S'Helvetica'
p2838
sg15
I500
sg16
g2734
sg17
g2734
sg18
g2537
sg20
g2735
sbag1
(g8
g3
NtRp2839
(dp2840
g11
g2732
sg13
S'Courier'
p2841
sg15
I500
sg16
g2734
sg17
g2734
sg18
g2538
sg20
g2735
sbag1
(g8
g3
NtRp2842
(dp2843
g11
g2732
sg13
S'Palatino'
p2844
sg15
I700
sg16
g2734
sg17
g2734
sg18
g2539
sg20
g2735
sbag1
(g8
g3
NtRp2845
(dp2846
g11
g2734
sg13
S'Computer Modern'
p2847
sg15
I500
sg16
g2734
sg17
g2734
sg18
g2540
sg20
g2735
sbag1
(g8
g3
NtRp2848
(dp2849
g11
g2734
sg13
S'Symbol'
p2850
sg15
I500
sg16
g2734
sg17
g2734
sg18
g2541
sg20
g2735
sbag1
(g8
g3
NtRp2851
(dp2852
g11
g2732
sg13
S'Computer Modern'
p2853
sg15
I500
sg16
g2734
sg17
g2734
sg18
g2542
sg20
g2735
sbag1
(g8
g3
NtRp2854
(dp2855
g11
g2734
sg13
S'Courier'
p2856
sg15
I700
sg16
g2734
sg17
g2734
sg18
g2543
sg20
g2735
sbag1
(g8
g3
NtRp2857
(dp2858
g11
g2734
sg13
S'Times'
p2859
sg15
I700
sg16
g2734
sg17
g2734
sg18
g2544
sg20
g2735
sbag1
(g8
g3
NtRp2860
(dp2861
g11
g2734
sg13
S'Utopia'
p2862
sg15
I700
sg16
g2734
sg17
g2734
sg18
g2545
sg20
g2735
sbag1
(g8
g3
NtRp2863
(dp2864
g11
g2732
sg13
S'Computer Modern'
p2865
sg15
I500
sg16
g2734
sg17
g2734
sg18
g2546
sg20
g2735
sbag1
(g8
g3
NtRp2866
(dp2867
g11
g2734
sg13
S'Palatino'
p2868
sg15
I500
sg16
g2734
sg17
g2734
sg18
g2547
sg20
g2735
sbag1
(g8
g3
NtRp2869
(dp2870
g11
g2734
sg13
S'Symbol'
p2871
sg15
I500
sg16
g2734
sg17
g2734
sg18
g2548
sg20
g2735
sbag1
(g8
g3
NtRp2872
(dp2873
g11
g2734
sg13
S'Helvetica'
p2874
sg15
I500
sg16
g2734
sg17
g2734
sg18
g2549
sg20
g2735
sbag1
(g8
g3
NtRp2875
(dp2876
g11
g2734
sg13
S'Times'
p2877
sg15
I700
sg16
g2734
sg17
g2734
sg18
g2550
sg20
g2735
sbag1
(g8
g3
NtRp2878
(dp2879
g11
g2734
sg13
S'Times'
p2880
sg15
I500
sg16
g2734
sg17
g2734
sg18
g2551
sg20
g2735
sbag1
(g8
g3
NtRp2881
(dp2882
g11
g2732
sg13
S'ITC Bookman'
p2883
sg15
I200
sg16
g2734
sg17
g2734
sg18
g2552
sg20
g2735
sbag1
(g8
g3
NtRp2884
(dp2885
g11
g2732
sg13
S'ITC Zapf Chancery'
p2886
sg15
I500
sg16
g2734
sg17
g2734
sg18
g2553
sg20
g2735
sbag1
(g8
g3
NtRp2887
(dp2888
g11
g2732
sg13
S'Courier'
p2889
sg15
I700
sg16
g2734
sg17
g2734
sg18
g2554
sg20
g2735
sbag1
(g8
g3
NtRp2890
(dp2891
g11
g2734
sg13
S'Computer Modern'
p2892
sg15
I500
sg16
g2734
sg17
g2734
sg18
g2555
sg20
g2735
sbag1
(g8
g3
NtRp2893
(dp2894
g11
g2734
sg13
S'Helvetica'
p2895
sg15
I500
sg16
g2734
sg17
g2734
sg18
g2556
sg20
g2735
sbag1
(g8
g3
NtRp2896
(dp2897
g11
g2732
sg13
S'Times'
p2898
sg15
I700
sg16
g2734
sg17
g2734
sg18
g2557
sg20
g2735
sbag1
(g8
g3
NtRp2899
(dp2900
g11
g2734
sg13
S'ITC Bookman'
p2901
sg15
I200
sg16
g2734
sg17
g2734
sg18
g2558
sg20
g2735
sbag1
(g8
g3
NtRp2902
(dp2903
g11
g2734
sg13
S'ITC Avant Garde Gothic'
p2904
sg15
I600
sg16
g2734
sg17
g2734
sg18
g2559
sg20
g2735
sbag1
(g8
g3
NtRp2905
(dp2906
g11
g2732
sg13
S'ITC Bookman'
p2907
sg15
I600
sg16
g2734
sg17
g2734
sg18
g2560
sg20
g2735
sbag1
(g8
g3
NtRp2908
(dp2909
g11
g2732
sg13
S'New Century Schoolbook'
p2910
sg15
I700
sg16
g2734
sg17
g2734
sg18
g2561
sg20
g2735
sbag1
(g8
g3
NtRp2911
(dp2912
g11
g2734
sg13
S'ITC Bookman'
p2913
sg15
I600
sg16
g2734
sg17
g2734
sg18
g2562
sg20
g2735
sbag1
(g8
g3
NtRp2914
(dp2915
g11
g2734
sg13
S'LMMono10'
p2916
sg15
I400
sg16
g2734
sg17
g2734
sg18
g2563
sg20
g2735
sbag1
(g8
g3
NtRp2917
(dp2918
g11
g2734
sg13
S'URW Palladio L'
p2919
sg15
I700
sg16
g2734
sg17
g2734
sg18
g2564
sg20
g2735
sbag1
(g8
g3
NtRp2920
(dp2921
g11
g2732
sg13
S'LMSansQuot8'
p2922
sg15
I400
sg16
g2734
sg17
g2734
sg18
g2565
sg20
g2735
sbag1
(g8
g3
NtRp2923
(dp2924
g11
g2732
sg13
S'Nimbus Sans L'
p2925
sg15
I700
sg16
g2742
sg17
g2734
sg18
g2566
sg20
g2735
sbag1
(g8
g3
NtRp2926
(dp2927
g11
g2734
sg13
S'URW Bookman L'
p2928
sg15
I700
sg16
g2734
sg17
g2734
sg18
g2567
sg20
g2735
sbag1
(g8
g3
NtRp2929
(dp2930
g11
g2732
sg13
S'LMRomanSlant10'
p2931
sg15
I700
sg16
g2734
sg17
g2734
sg18
g2568
sg20
g2735
sbag1
(g8
g3
NtRp2932
(dp2933
g11
g2732
sg13
S'Century Schoolbook L'
p2934
sg15
I700
sg16
g2734
sg17
g2734
sg18
g2569
sg20
g2735
sbag1
(g8
g3
NtRp2935
(dp2936
g11
g2732
sg13
S'URW Palladio L'
p2937
sg15
I700
sg16
g2734
sg17
g2734
sg18
g2570
sg20
g2735
sbag1
(g8
g3
NtRp2938
(dp2939
g11
g2732
sg13
S'Nimbus Mono L'
p2940
sg15
I700
sg16
g2734
sg17
g2734
sg18
g2571
sg20
g2735
sbag1
(g8
g3
NtRp2941
(dp2942
g11
g2734
sg13
S'LMMonoLtCond10'
p2943
sg15
I200
sg16
g2742
sg17
g2734
sg18
g2572
sg20
g2735
sbag1
(g8
g3
NtRp2944
(dp2945
g11
g2734
sg13
S'LMMonoLt10'
p2946
sg15
I700
sg16
g2734
sg17
g2734
sg18
g2574
sg20
g2735
sbag1
(g8
g3
NtRp2947
(dp2948
g11
g2734
sg13
S'TeXGyreBonum'
p2949
sg15
I400
sg16
g2734
sg17
g2734
sg18
g2575
sg20
g2735
sbag1
(g8
g3
NtRp2950
(dp2951
g11
g2734
sg13
S'LMRomanDunh10'
p2952
sg15
I400
sg16
g2734
sg17
g2734
sg18
g2576
sg20
g2735
sbag1
(g8
g3
NtRp2953
(dp2954
g11
g2734
sg13
S'Nimbus Sans L'
p2955
sg15
I400
sg16
g2734
sg17
g2734
sg18
g2577
sg20
g2735
sbag1
(g8
g3
NtRp2956
(dp2957
g11
g2732
sg13
S'LMRomanDunh10'
p2958
sg15
I400
sg16
g2734
sg17
g2734
sg18
g2578
sg20
g2735
sbag1
(g8
g3
NtRp2959
(dp2960
g11
g2732
sg13
S'Nimbus Mono L'
p2961
sg15
I400
sg16
g2734
sg17
g2734
sg18
g2579
sg20
g2735
sbag1
(g8
g3
NtRp2962
(dp2963
g11
g2732
sg13
S'URW Bookman L'
p2964
sg15
I400
sg16
g2734
sg17
g2734
sg18
g2580
sg20
g2735
sbag1
(g8
g3
NtRp2965
(dp2966
g11
g2732
sg13
S'Nimbus Sans L'
p2967
sg15
I700
sg16
g2742
sg17
g2734
sg18
g2581
sg20
g2735
sbag1
(g8
g3
NtRp2968
(dp2969
g11
g2734
sg13
S'URW Gothic L'
p2970
sg15
I400
sg16
g2734
sg17
g2734
sg18
g2582
sg20
g2735
sbag1
(g8
g3
NtRp2971
(dp2972
g11
g2732
sg13
S'Nimbus Sans L'
p2973
sg15
I400
sg16
g2734
sg17
g2734
sg18
g2583
sg20
g2735
sbag1
(g8
g3
NtRp2974
(dp2975
g11
g2734
sg13
S'TeXGyreCursor'
p2976
sg15
I400
sg16
g2734
sg17
g2734
sg18
g2584
sg20
g2735
sbag1
(g8
g3
NtRp2977
(dp2978
g11
g2732
sg13
S'URW Bookman L'
p2979
sg15
I700
sg16
g2734
sg17
g2734
sg18
g2585
sg20
g2735
sbag1
(g8
g3
NtRp2980
(dp2981
g11
g2734
sg13
S'Century Schoolbook L'
p2982
sg15
I700
sg16
g2734
sg17
g2734
sg18
g2587
sg20
g2735
sbag1
(g8
g3
NtRp2983
(dp2984
g11
g2732
sg13
S'LMRomanSlant10'
p2985
sg15
I400
sg16
g2734
sg17
g2734
sg18
g2588
sg20
g2735
sbag1
(g8
g3
NtRp2986
(dp2987
g11
g2734
sg13
S'TeXGyreHerosCondensed'
p2988
sg15
I700
sg16
g2742
sg17
g2734
sg18
g2590
sg20
g2735
sbag1
(g8
g3
NtRp2989
(dp2990
g11
g2734
sg13
S'TeXGyreTermes'
p2991
sg15
I700
sg16
g2734
sg17
g2734
sg18
g2591
sg20
g2735
sbag1
(g8
g3
NtRp2992
(dp2993
g11
g2732
sg13
S'LMMonoPropLt10'
p2994
sg15
I200
sg16
g2734
sg17
g2734
sg18
g2592
sg20
g2735
sbag1
(g8
g3
NtRp2995
(dp2996
g11
g2732
sg13
S'LMMonoCaps10'
p2997
sg15
I400
sg16
g2734
sg17
g2734
sg18
g2593
sg20
g2735
sbag1
(g8
g3
NtRp2998
(dp2999
g11
g2732
sg13
S'LMMono10'
p3000
sg15
I400
sg16
g2734
sg17
g2734
sg18
g2594
sg20
g2735
sbag1
(g8
g3
NtRp3001
(dp3002
g11
g2734
sg13
S'Courier 10 Pitch'
p3003
sg15
I400
sg16
g2734
sg17
g2734
sg18
g2595
sg20
g2735
sbag1
(g8
g3
NtRp3004
(dp3005
g11
g2732
sg13
S'Nimbus Roman No9 L'
p3006
sg15
I700
sg16
g2734
sg17
g2734
sg18
g2596
sg20
g2735
sbag1
(g8
g3
NtRp3007
(dp3008
g11
g2732
sg13
S'Nimbus Sans L'
p3009
sg15
I700
sg16
g2734
sg17
g2734
sg18
g2597
sg20
g2735
sbag1
(g8
g3
NtRp3010
(dp3011
g11
g2732
sg13
S'TeXGyreHeros'
p3012
sg15
I700
sg16
g2734
sg17
g2734
sg18
g2598
sg20
g2735
sbag1
(g8
g3
NtRp3013
(dp3014
g11
g2734
sg13
S'TeXGyreSchola'
p3015
sg15
I700
sg16
g2734
sg17
g2734
sg18
g2599
sg20
g2735
sbag1
(g8
g3
NtRp3016
(dp3017
g11
g2734
sg13
S'LMRoman10'
p3018
sg15
I700
sg16
g2734
sg17
g2734
sg18
g2600
sg20
g2735
sbag1
(g8
g3
NtRp3019
(dp3020
g11
g2734
sg13
S'Dingbats'
p3021
sg15
I400
sg16
g2734
sg17
g2734
sg18
g2601
sg20
g2735
sbag1
(g8
g3
NtRp3022
(dp3023
g11
g2734
sg13
S'LMRomanDemi10'
p3024
sg15
I600
sg16
g2734
sg17
g2734
sg18
g2602
sg20
g2735
sbag1
(g8
g3
NtRp3025
(dp3026
g11
g2734
sg13
S'LMSansQuot8'
p3027
sg15
I700
sg16
g2734
sg17
g2734
sg18
g2603
sg20
g2735
sbag1
(g8
g3
NtRp3028
(dp3029
g11
g2734
sg13
S'TeXGyreHeros'
p3030
sg15
I700
sg16
g2734
sg17
g2734
sg18
g2604
sg20
g2735
sbag1
(g8
g3
NtRp3031
(dp3032
g11
g2732
sg13
S'Bitstream Charter'
p3033
sg15
I400
sg16
g2734
sg17
g2734
sg18
g2605
sg20
g2735
sbag1
(g8
g3
NtRp3034
(dp3035
g11
g2734
sg13
S'Nimbus Mono L'
p3036
sg15
I400
sg16
g2734
sg17
g2734
sg18
g2606
sg20
g2735
sbag1
(g8
g3
NtRp3037
(dp3038
g11
g2734
sg13
S'Nimbus Sans L'
p3039
sg15
I700
sg16
g2742
sg17
g2734
sg18
g2607
sg20
g2735
sbag1
(g8
g3
NtRp3040
(dp3041
g11
g2732
sg13
S'URW Chancery L'
p3042
sg15
I500
sg16
g2734
sg17
g2734
sg18
g2608
sg20
g2735
sbag1
(g8
g3
NtRp3043
(dp3044
g11
g2734
sg13
S'TeXGyreHeros'
p3045
sg15
I400
sg16
g2734
sg17
g2734
sg18
g2609
sg20
g2735
sbag1
(g8
g3
NtRp3046
(dp3047
g11
g2732
sg13
S'LMRoman10'
p3048
sg15
I700
sg16
g2734
sg17
g2734
sg18
g2610
sg20
g2735
sbag1
(g8
g3
NtRp3049
(dp3050
g11
g2732
sg13
S'LMRomanCaps10'
p3051
sg15
I400
sg16
g2734
sg17
g2734
sg18
g2611
sg20
g2735
sbag1
(g8
g3
NtRp3052
(dp3053
g11
g2732
sg13
S'URW Chancery L'
p3054
sg15
I500
sg16
g2734
sg17
g2734
sg18
g2613
sg20
g2735
sbag1
(g8
g3
NtRp3055
(dp3056
g11
g2732
sg13
S'TeXGyreAdventor'
p3057
sg15
I400
sg16
g2734
sg17
g2734
sg18
g2614
sg20
g2735
sbag1
(g8
g3
NtRp3058
(dp3059
g11
g2734
sg13
S'TeXGyrePagella'
p3060
sg15
I400
sg16
g2734
sg17
g2734
sg18
g2615
sg20
g2735
sbag1
(g8
g3
NtRp3061
(dp3062
g11
g2732
sg13
S'Nimbus Sans L'
p3063
sg15
I700
sg16
g2734
sg17
g2734
sg18
g2616
sg20
g2735
sbag1
(g8
g3
NtRp3064
(dp3065
g11
g2734
sg13
S'TeXGyreSchola'
p3066
sg15
I400
sg16
g2734
sg17
g2734
sg18
g2617
sg20
g2735
sbag1
(g8
g3
NtRp3067
(dp3068
g11
g2732
sg13
S'TeXGyreBonum'
p3069
sg15
I700
sg16
g2734
sg17
g2734
sg18
g2618
sg20
g2735
sbag1
(g8
g3
NtRp3070
(dp3071
g11
g2732
sg13
S'Nimbus Roman No9 L'
p3072
sg15
I400
sg16
g2734
sg17
g2734
sg18
g2619
sg20
g2735
sbag1
(g8
g3
NtRp3073
(dp3074
g11
g2734
sg13
S'URW Gothic L'
p3075
sg15
I400
sg16
g2734
sg17
g2734
sg18
g2620
sg20
g2735
sbag1
(g8
g3
NtRp3076
(dp3077
g11
g2734
sg13
S'Courier 10 Pitch'
p3078
sg15
I700
sg16
g2734
sg17
g2734
sg18
g2621
sg20
g2735
sbag1
(g8
g3
NtRp3079
(dp3080
g11
g2734
sg13
S'Nimbus Mono L'
p3081
sg15
I700
sg16
g2734
sg17
g2734
sg18
g2622
sg20
g2735
sbag1
(g8
g3
NtRp3082
(dp3083
g11
g2732
sg13
S'Nimbus Mono L'
p3084
sg15
I700
sg16
g2734
sg17
g2734
sg18
g2623
sg20
g2735
sbag1
(g8
g3
NtRp3085
(dp3086
g11
g2732
sg13
S'URW Palladio L'
p3087
sg15
I400
sg16
g2734
sg17
g2734
sg18
g2624
sg20
g2735
sbag1
(g8
g3
NtRp3088
(dp3089
g11
g2732
sg13
S'Bitstream Charter'
p3090
sg15
I700
sg16
g2734
sg17
g2734
sg18
g2625
sg20
g2735
sbag1
(g8
g3
NtRp3091
(dp3092
g11
g2734
sg13
S'LMRomanCaps10'
p3093
sg15
I400
sg16
g2734
sg17
g2734
sg18
g2626
sg20
g2735
sbag1
(g8
g3
NtRp3094
(dp3095
g11
g2732
sg13
S'TeXGyreAdventor'
p3096
sg15
I700
sg16
g2734
sg17
g2734
sg18
g2627
sg20
g2735
sbag1
(g8
g3
NtRp3097
(dp3098
g11
g2732
sg13
S'Nimbus Sans L'
p3099
sg15
I400
sg16
g2742
sg17
g2734
sg18
g2628
sg20
g2735
sbag1
(g8
g3
NtRp3100
(dp3101
g11
g2732
sg13
S'TeXGyreCursor'
p3102
sg15
I700
sg16
g2734
sg17
g2734
sg18
g2629
sg20
g2735
sbag1
(g8
g3
NtRp3103
(dp3104
g11
g2734
sg13
S'TeXGyreCursor'
p3105
sg15
I700
sg16
g2734
sg17
g2734
sg18
g2630
sg20
g2735
sbag1
(g8
g3
NtRp3106
(dp3107
g11
g2732
sg13
S'LMSansQuot8'
p3108
sg15
I700
sg16
g2734
sg17
g2734
sg18
g2631
sg20
g2735
sbag1
(g8
g3
NtRp3109
(dp3110
g11
g2734
sg13
S'URW Palladio L'
p3111
sg15
I500
sg16
g2734
sg17
g2734
sg18
g2632
sg20
g2735
sbag1
(g8
g3
NtRp3112
(dp3113
g11
g2732
sg13
S'URW Bookman L'
p3114
sg15
I400
sg16
g2734
sg17
g2734
sg18
g2633
sg20
g2735
sbag1
(g8
g3
NtRp3115
(dp3116
g11
g2734
sg13
S'LMMonoPropLt10'
p3117
sg15
I700
sg16
g2734
sg17
g2734
sg18
g2634
sg20
g2735
sbag1
(g8
g3
NtRp3118
(dp3119
g11
g2732
sg13
S'Nimbus Roman No9 L'
p3120
sg15
I400
sg16
g2734
sg17
g2734
sg18
g2635
sg20
g2735
sbag1
(g8
g3
NtRp3121
(dp3122
g11
g2732
sg13
S'TeXGyreHeros'
p3123
sg15
I400
sg16
g2734
sg17
g2734
sg18
g2636
sg20
g2735
sbag1
(g8
g3
NtRp3124
(dp3125
g11
g2732
sg13
S'LMMonoLt10'
p3126
sg15
I200
sg16
g2734
sg17
g2734
sg18
g2637
sg20
g2735
sbag1
(g8
g3
NtRp3127
(dp3128
g11
g2734
sg13
S'LMMonoPropLt10'
p3129
sg15
I200
sg16
g2734
sg17
g2734
sg18
g2638
sg20
g2735
sbag1
(g8
g3
NtRp3130
(dp3131
g11
g2734
sg13
S'Nimbus Roman No9 L'
p3132
sg15
I400
sg16
g2734
sg17
g2734
sg18
g2639
sg20
g2735
sbag1
(g8
g3
NtRp3133
(dp3134
g11
g2732
sg13
S'TeXGyreChorus'
p3135
sg15
I500
sg16
g2734
sg17
g2734
sg18
g2640
sg20
g2735
sbag1
(g8
g3
NtRp3136
(dp3137
g11
g2734
sg13
S'Standard Symbols L'
p3138
sg15
I400
sg16
g2734
sg17
g2734
sg18
g2641
sg20
g2735
sbag1
(g8
g3
NtRp3139
(dp3140
g11
g2734
sg13
S'Nimbus Roman No9 L'
p3141
sg15
I700
sg16
g2734
sg17
g2734
sg18
g2642
sg20
g2735
sbag1
(g8
g3
NtRp3142
(dp3143
g11
g2732
sg13
S'URW Palladio L'
p3144
sg15
I700
sg16
g2734
sg17
g2734
sg18
g2643
sg20
g2735
sbag1
(g8
g3
NtRp3145
(dp3146
g11
g2732
sg13
S'TeXGyreTermes'
p3147
sg15
I400
sg16
g2734
sg17
g2734
sg18
g2644
sg20
g2735
sbag1
(g8
g3
NtRp3148
(dp3149
g11
g2734
sg13
S'Century Schoolbook L'
p3150
sg15
I500
sg16
g2734
sg17
g2734
sg18
g2645
sg20
g2735
sbag1
(g8
g3
NtRp3151
(dp3152
g11
g2734
sg13
S'TeXGyreBonum'
p3153
sg15
I700
sg16
g2734
sg17
g2734
sg18
g2646
sg20
g2735
sbag1
(g8
g3
NtRp3154
(dp3155
g11
g2732
sg13
S'TeXGyreSchola'
p3156
sg15
I400
sg16
g2734
sg17
g2734
sg18
g2647
sg20
g2735
sbag1
(g8
g3
NtRp3157
(dp3158
g11
g2734
sg13
S'Century Schoolbook L'
p3159
sg15
I500
sg16
g2734
sg17
g2734
sg18
g2648
sg20
g2735
sbag1
(g8
g3
NtRp3160
(dp3161
g11
g2734
sg13
S'TeXGyreTermes'
p3162
sg15
I400
sg16
g2734
sg17
g2734
sg18
g2649
sg20
g2735
sbag1
(g8
g3
NtRp3163
(dp3164
g11
g2734
sg13
S'LMMonoCaps10'
p3165
sg15
I400
sg16
g2734
sg17
g2734
sg18
g2650
sg20
g2735
sbag1
(g8
g3
NtRp3166
(dp3167
g11
g2734
sg13
S'TeXGyreAdventor'
p3168
sg15
I700
sg16
g2734
sg17
g2734
sg18
g2652
sg20
g2735
sbag1
(g8
g3
NtRp3169
(dp3170
g11
g2732
sg13
S'Bitstream Charter'
p3171
sg15
I700
sg16
g2734
sg17
g2734
sg18
g2653
sg20
g2735
sbag1
(g8
g3
NtRp3172
(dp3173
g11
g2732
sg13
S'LMMonoProp10'
p3174
sg15
I400
sg16
g2734
sg17
g2734
sg18
g2654
sg20
g2735
sbag1
(g8
g3
NtRp3175
(dp3176
g11
g2732
sg13
S'Courier 10 Pitch'
p3177
sg15
I700
sg16
g2734
sg17
g2734
sg18
g2655
sg20
g2735
sbag1
(g8
g3
NtRp3178
(dp3179
g11
g2734
sg13
S'LMSans10'
p3180
sg15
I400
sg16
g2734
sg17
g2734
sg18
g2657
sg20
g2735
sbag1
(g8
g3
NtRp3181
(dp3182
g11
g2734
sg13
S'LMMonoProp10'
p3183
sg15
I400
sg16
g2734
sg17
g2734
sg18
g2658
sg20
g2735
sbag1
(g8
g3
NtRp3184
(dp3185
g11
g2732
sg13
S'URW Bookman L'
p3186
sg15
I700
sg16
g2734
sg17
g2734
sg18
g2659
sg20
g2735
sbag1
(g8
g3
NtRp3187
(dp3188
g11
g2732
sg13
S'TeXGyreTermes'
p3189
sg15
I700
sg16
g2734
sg17
g2734
sg18
g2661
sg20
g2735
sbag1
(g8
g3
NtRp3190
(dp3191
g11
g2732
sg13
S'TeXGyreSchola'
p3192
sg15
I400
sg16
g2734
sg17
g2734
sg18
g2662
sg20
g2735
sbag1
(g8
g3
NtRp3193
(dp3194
g11
g2732
sg13
S'LMSansDemiCond10'
p3195
sg15
I600
sg16
g2742
sg17
g2734
sg18
g2664
sg20
g2735
sbag1
(g8
g3
NtRp3196
(dp3197
g11
g2734
sg13
S'Nimbus Mono L'
p3198
sg15
I700
sg16
g2734
sg17
g2734
sg18
g2665
sg20
g2735
sbag1
(g8
g3
NtRp3199
(dp3200
g11
g2732
sg13
S'TeXGyreHerosCondensed'
p3201
sg15
I700
sg16
g2742
sg17
g2734
sg18
g2667
sg20
g2735
sbag1
(g8
g3
NtRp3202
(dp3203
g11
g2732
sg13
S'Nimbus Roman No9 L'
p3204
sg15
I700
sg16
g2734
sg17
g2734
sg18
g2668
sg20
g2735
sbag1
(g8
g3
NtRp3205
(dp3206
g11
g2734
sg13
S'Nimbus Sans L'
p3207
sg15
I400
sg16
g2742
sg17
g2734
sg18
g2669
sg20
g2735
sbag1
(g8
g3
NtRp3208
(dp3209
g11
g2734
sg13
S'URW Gothic L'
p3210
sg15
I600
sg16
g2734
sg17
g2734
sg18
g2670
sg20
g2735
sbag1
(g8
g3
NtRp3211
(dp3212
g11
g2732
sg13
S'LMRoman10'
p3213
sg15
I400
sg16
g2734
sg17
g2734
sg18
g2671
sg20
g2735
sbag1
(g8
g3
NtRp3214
(dp3215
g11
g2734
sg13
S'Nimbus Sans L'
p3216
sg15
I700
sg16
g2734
sg17
g2734
sg18
g2672
sg20
g2735
sbag1
(g8
g3
NtRp3217
(dp3218
g11
g2734
sg13
S'LMRoman10'
p3219
sg15
I400
sg16
g2734
sg17
g2734
sg18
g2673
sg20
g2735
sbag1
(g8
g3
NtRp3220
(dp3221
g11
g2734
sg13
S'URW Gothic L'
p3222
sg15
I600
sg16
g2734
sg17
g2734
sg18
g2674
sg20
g2735
sbag1
(g8
g3
NtRp3223
(dp3224
g11
g2732
sg13
S'Century Schoolbook L'
p3225
sg15
I400
sg16
g2734
sg17
g2734
sg18
g2675
sg20
g2735
sbag1
(g8
g3
NtRp3226
(dp3227
g11
g2734
sg13
S'LMMonoLt10'
p3228
sg15
I200
sg16
g2734
sg17
g2734
sg18
g2676
sg20
g2735
sbag1
(g8
g3
NtRp3229
(dp3230
g11
g2734
sg13
S'Standard Symbols L'
p3231
sg15
I400
sg16
g2734
sg17
g2734
sg18
g2677
sg20
g2735
sbag1
(g8
g3
NtRp3232
(dp3233
g11
g2734
sg13
S'Nimbus Sans L'
p3234
sg15
I400
sg16
g2734
sg17
g2734
sg18
g2678
sg20
g2735
sbag1
(g8
g3
NtRp3235
(dp3236
g11
g2732
sg13
S'TeXGyrePagella'
p3237
sg15
I400
sg16
g2734
sg17
g2734
sg18
g2679
sg20
g2735
sbag1
(g8
g3
NtRp3238
(dp3239
g11
g2734
sg13
S'URW Bookman L'
p3240
sg15
I400
sg16
g2734
sg17
g2734
sg18
g2680
sg20
g2735
sbag1
(g8
g3
NtRp3241
(dp3242
g11
g2734
sg13
S'TeXGyreHerosCondensed'
p3243
sg15
I400
sg16
g2742
sg17
g2734
sg18
g2681
sg20
g2735
sbag1
(g8
g3
NtRp3244
(dp3245
g11
g2732
sg13
S'LMMonoLtCond10'
p3246
sg15
I200
sg16
g2742
sg17
g2734
sg18
g2682
sg20
g2735
sbag1
(g8
g3
NtRp3247
(dp3248
g11
g2732
sg13
S'LMMonoSlant10'
p3249
sg15
I400
sg16
g2734
sg17
g2734
sg18
g2683
sg20
g2735
sbag1
(g8
g3
NtRp3250
(dp3251
g11
g2734
sg13
S'TeXGyrePagella'
p3252
sg15
I700
sg16
g2734
sg17
g2734
sg18
g2684
sg20
g2735
sbag1
(g8
g3
NtRp3253
(dp3254
g11
g2734
sg13
S'Bitstream Charter'
p3255
sg15
I400
sg16
g2734
sg17
g2734
sg18
g2685
sg20
g2735
sbag1
(g8
g3
NtRp3256
(dp3257
g11
g2734
sg13
S'Nimbus Mono L'
p3258
sg15
I400
sg16
g2734
sg17
g2734
sg18
g2686
sg20
g2735
sbag1
(g8
g3
NtRp3259
(dp3260
g11
g2732
sg13
S'URW Gothic L'
p3261
sg15
I400
sg16
g2734
sg17
g2734
sg18
g2687
sg20
g2735
sbag1
(g8
g3
NtRp3262
(dp3263
g11
g2732
sg13
S'LMMonoPropLt10'
p3264
sg15
I700
sg16
g2734
sg17
g2734
sg18
g2688
sg20
g2735
sbag1
(g8
g3
NtRp3265
(dp3266
g11
g2732
sg13
S'Bitstream Charter'
p3267
sg15
I400
sg16
g2734
sg17
g2734
sg18
g2689
sg20
g2735
sbag1
(g8
g3
NtRp3268
(dp3269
g11
g2734
sg13
S'Bitstream Charter'
p3270
sg15
I700
sg16
g2734
sg17
g2734
sg18
g2690
sg20
g2735
sbag1
(g8
g3
NtRp3271
(dp3272
g11
g2734
sg13
S'Nimbus Sans L'
p3273
sg15
I400
sg16
g2742
sg17
g2734
sg18
g2691
sg20
g2735
sbag1
(g8
g3
NtRp3274
(dp3275
g11
g2734
sg13
S'URW Palladio L'
p3276
sg15
I700
sg16
g2734
sg17
g2734
sg18
g2692
sg20
g2735
sbag1
(g8
g3
NtRp3277
(dp3278
g11
g2732
sg13
S'TeXGyreCursor'
p3279
sg15
I400
sg16
g2734
sg17
g2734
sg18
g2693
sg20
g2735
sbag1
(g8
g3
NtRp3280
(dp3281
g11
g2734
sg13
S'LMSans10'
p3282
sg15
I700
sg16
g2734
sg17
g2734
sg18
g2694
sg20
g2735
sbag1
(g8
g3
NtRp3283
(dp3284
g11
g2732
sg13
S'Nimbus Sans L'
p3285
sg15
I400
sg16
g2742
sg17
g2734
sg18
g2695
sg20
g2735
sbag1
(g8
g3
NtRp3286
(dp3287
g11
g2734
sg13
S'URW Bookman L'
p3288
sg15
I700
sg16
g2734
sg17
g2734
sg18
g2696
sg20
g2735
sbag1
(g8
g3
NtRp3289
(dp3290
g11
g2732
sg13
S'URW Gothic L'
p3291
sg15
I400
sg16
g2734
sg17
g2734
sg18
g2697
sg20
g2735
sbag1
(g8
g3
NtRp3292
(dp3293
g11
g2734
sg13
S'URW Palladio L'
p3294
sg15
I500
sg16
g2734
sg17
g2734
sg18
g2698
sg20
g2735
sbag1
(g8
g3
NtRp3295
(dp3296
g11
g2734
sg13
S'Nimbus Sans L'
p3297
sg15
I700
sg16
g2742
sg17
g2734
sg18
g2699
sg20
g2735
sbag1
(g8
g3
NtRp3298
(dp3299
g11
g2732
sg13
S'Courier 10 Pitch'
p3300
sg15
I400
sg16
g2734
sg17
g2734
sg18
g2700
sg20
g2735
sbag1
(g8
g3
NtRp3301
(dp3302
g11
g2734
sg13
S'Nimbus Roman No9 L'
p3303
sg15
I700
sg16
g2734
sg17
g2734
sg18
g2701
sg20
g2735
sbag1
(g8
g3
NtRp3304
(dp3305
g11
g2734
sg13
S'Nimbus Sans L'
p3306
sg15
I700
sg16
g2734
sg17
g2734
sg18
g2702
sg20
g2735
sbag1
(g8
g3
NtRp3307
(dp3308
g11
g2734
sg13
S'LMSansQuot8'
p3309
sg15
I400
sg16
g2734
sg17
g2734
sg18
g2703
sg20
g2735
sbag1
(g8
g3
NtRp3310
(dp3311
g11
g2732
sg13
S'LMSans10'
p3312
sg15
I700
sg16
g2734
sg17
g2734
sg18
g2704
sg20
g2735
sbag1
(g8
g3
NtRp3313
(dp3314
g11
g2734
sg13
S'TeXGyreAdventor'
p3315
sg15
I400
sg16
g2734
sg17
g2734
sg18
g2706
sg20
g2735
sbag1
(g8
g3
NtRp3316
(dp3317
g11
g2732
sg13
S'Century Schoolbook L'
p3318
sg15
I400
sg16
g2734
sg17
g2734
sg18
g2707
sg20
g2735
sbag1
(g8
g3
NtRp3319
(dp3320
g11
g2734
sg13
S'Nimbus Roman No9 L'
p3321
sg15
I400
sg16
g2734
sg17
g2734
sg18
g2708
sg20
g2735
sbag1
(g8
g3
NtRp3322
(dp3323
g11
g2734
sg13
S'Bitstream Charter'
p3324
sg15
I400
sg16
g2734
sg17
g2734
sg18
g2709
sg20
g2735
sbag1
(g8
g3
NtRp3325
(dp3326
g11
g2732
sg13
S'Nimbus Sans L'
p3327
sg15
I400
sg16
g2734
sg17
g2734
sg18
g2710
sg20
g2735
sbag1
(g8
g3
NtRp3328
(dp3329
g11
g2734
sg13
S'URW Bookman L'
p3330
sg15
I400
sg16
g2734
sg17
g2734
sg18
g2711
sg20
g2735
sbag1
(g8
g3
NtRp3331
(dp3332
g11
g2732
sg13
S'LMMonoLt10'
p3333
sg15
I700
sg16
g2734
sg17
g2734
sg18
g2712
sg20
g2735
sbag1
(g8
g3
NtRp3334
(dp3335
g11
g2732
sg13
S'Century Schoolbook L'
p3336
sg15
I700
sg16
g2734
sg17
g2734
sg18
g2713
sg20
g2735
sbag1
(g8
g3
NtRp3337
(dp3338
g11
g2732
sg13
S'LMSans10'
p3339
sg15
I400
sg16
g2734
sg17
g2734
sg18
g2714
sg20
g2735
sbag1
(g8
g3
NtRp3340
(dp3341
g11
g2732
sg13
S'LMRomanDemi10'
p3342
sg15
I600
sg16
g2734
sg17
g2734
sg18
g2715
sg20
g2735
sbag1
(g8
g3
NtRp3343
(dp3344
g11
g2732
sg13
S'URW Palladio L'
p3345
sg15
I400
sg16
g2734
sg17
g2734
sg18
g2716
sg20
g2735
sbag1
(g8
g3
NtRp3346
(dp3347
g11
g2732
sg13
S'TeXGyrePagella'
p3348
sg15
I700
sg16
g2734
sg17
g2734
sg18
g2717
sg20
g2735
sbag1
(g8
g3
NtRp3349
(dp3350
g11
g2732
sg13
S'URW Gothic L'
p3351
sg15
I600
sg16
g2734
sg17
g2734
sg18
g2718
sg20
g2735
sbag1
(g8
g3
NtRp3352
(dp3353
g11
g2734
sg13
S'LMSansDemiCond10'
p3354
sg15
I600
sg16
g2742
sg17
g2734
sg18
g2719
sg20
g2735
sbag1
(g8
g3
NtRp3355
(dp3356
g11
g2734
sg13
S'Century Schoolbook L'
p3357
sg15
I700
sg16
g2734
sg17
g2734
sg18
g2720
sg20
g2735
sbag1
(g8
g3
NtRp3358
(dp3359
g11
g2732
sg13
S'Nimbus Mono L'
p3360
sg15
I400
sg16
g2734
sg17
g2734
sg18
g2721
sg20
g2735
sbag1
(g8
g3
NtRp3361
(dp3362
g11
g2732
sg13
S'TeXGyreHerosCondensed'
p3363
sg15
I400
sg16
g2742
sg17
g2734
sg18
g2722
sg20
g2735
sbag1
(g8
g3
NtRp3364
(dp3365
g11
g2732
sg13
S'URW Gothic L'
p3366
sg15
I600
sg16
g2734
sg17
g2734
sg18
g2723
sg20
g2735
sbag1
(g8
g3
NtRp3367
(dp3368
g11
g2732
sg13
S'TeXGyreBonum'
p3369
sg15
I400
sg16
g2734
sg17
g2734
sg18
g2724
sg20
g2735
sbag1
(g8
g3
NtRp3370
(dp3371
g11
g2734
sg13
S'Dingbats'
p3372
sg15
I400
sg16
g2734
sg17
g2734
sg18
g2725
sg20
g2735
sbag1
(g8
g3
NtRp3373
(dp3374
g11
g2734
sg13
S'Bitstream Charter'
p3375
sg15
I700
sg16
g2734
sg17
g2734
sg18
g2726
sg20
g2735
sbag1
(g8
g3
NtRp3376
(dp3377
g11
g2734
sg13
S'LMRomanUnsl10'
p3378
sg15
I400
sg16
g2734
sg17
g2734
sg18
g2727
sg20
g2735
sbasb.